

Microchip MPLAB XC8 Assembler V2.46 build 20240104201356 
                                                                                               Mon Jul 29 09:07:59 2024

Microchip MPLAB XC8 C Compiler v2.46 (Free license) build 20240104201356 Og1 
     1                           	processor	16F1827
     2                           	pagewidth 120
     3                           	opt	flic
     4                           	psect	cinit,global,class=CODE,merge=1,delta=2
     5                           	psect	bssCOMMON,global,class=COMMON,space=1,delta=1,noexec
     6                           	psect	bssBANK0,global,class=BANK0,space=1,delta=1,noexec
     7                           	psect	bssBANK1,global,class=BANK1,space=1,delta=1,noexec
     8                           	psect	clrtext,global,class=CODE,delta=2
     9                           	psect	cstackBANK1,global,class=BANK1,space=1,delta=1,noexec
    10                           	psect	cstackCOMMON,global,class=COMMON,space=1,delta=1,noexec
    11                           	psect	cstackBANK0,global,class=BANK0,space=1,delta=1,noexec
    12                           	psect	maintext,global,class=CODE,merge=1,split=1,delta=2
    13                           	psect	text1,local,class=CODE,merge=1,delta=2,group=1
    14                           	psect	text2,local,class=CODE,merge=1,delta=2,group=1
    15                           	psect	text3,local,class=CODE,merge=1,delta=2,group=1
    16                           	psect	text4,local,class=CODE,merge=1,delta=2,group=1
    17                           	psect	text5,local,class=CODE,merge=1,delta=2,group=1
    18                           	psect	text6,local,class=CODE,merge=1,delta=2
    19                           	psect	text7,local,class=CODE,merge=1,delta=2
    20                           	psect	text8,local,class=CODE,merge=1,delta=2
    21                           	psect	text9,local,class=CODE,merge=1,delta=2
    22                           	psect	text10,local,class=CODE,merge=1,delta=2
    23                           	psect	text11,local,class=CODE,merge=1,delta=2
    24                           	psect	text12,local,class=CODE,merge=1,delta=2
    25                           	psect	text13,local,class=CODE,merge=1,delta=2
    26                           	psect	text14,local,class=CODE,merge=1,delta=2
    27                           	psect	text15,local,class=CODE,merge=1,delta=2
    28                           	psect	text16,local,class=CODE,merge=1,delta=2
    29                           	psect	text17,local,class=CODE,merge=1,delta=2
    30                           	psect	text18,local,class=CODE,merge=1,delta=2
    31                           	psect	text19,local,class=CODE,merge=1,delta=2
    32                           	psect	text20,local,class=CODE,merge=1,delta=2
    33                           	psect	text21,local,class=CODE,merge=1,delta=2
    34                           	psect	text22,local,class=CODE,merge=1,delta=2
    35                           	psect	text23,local,class=CODE,merge=1,delta=2
    36                           	psect	intentry,global,class=CODE,delta=2
    37                           	psect	text25,local,class=CODE,merge=1,delta=2
    38                           	psect	text26,local,class=CODE,merge=1,delta=2
    39                           	psect	text27,local,class=CODE,merge=1,delta=2
    40                           	psect	text28,local,class=CODE,merge=1,delta=2
    41                           	psect	text29,local,class=CODE,merge=1,delta=2
    42                           	psect	text30,local,class=CODE,merge=1,delta=2
    43                           	psect	config,global,abs,ovrld,class=CONFIG,space=4,delta=2,noexec
    44                           	dabs	1,0x7E,2
    45     0000                     
    46                           ; Generated 07/09/2023 GMT
    47                           ; 
    48                           ; Copyright © 2023, Microchip Technology Inc. and its subsidiaries ("Microchip")
    49                           ; All rights reserved.
    50                           ; 
    51                           ; This software is developed by Microchip Technology Inc. and its subsidiaries ("Microch
      +                          ip").
    52                           ; 
    53                           ; Redistribution and use in source and binary forms, with or without modification, are
    54                           ; permitted provided that the following conditions are met:
    55                           ; 
    56                           ;     1. Redistributions of source code must retain the above copyright notice, this lis
      +                          t of
    57                           ;        conditions and the following disclaimer.
    58                           ; 
    59                           ;     2. Redistributions in binary form must reproduce the above copyright notice, this 
      +                          list
    60                           ;        of conditions and the following disclaimer in the documentation and/or other
    61                           ;        materials provided with the distribution. Publication is not required when
    62                           ;        this file is used in an embedded application.
    63                           ; 
    64                           ;     3. Microchip's name may not be used to endorse or promote products derived from th
      +                          is
    65                           ;        software without specific prior written permission.
    66                           ; 
    67                           ; THIS SOFTWARE IS PROVIDED BY MICROCHIP "AS IS" AND ANY EXPRESS OR IMPLIED WARRANTIES,
    68                           ; INCLUDING, BUT NOT LIMITED TO, THE IMPLIED WARRANTIES OF MERCHANTABILITY AND FITNESS F
      +                          OR
    69                           ; PURPOSE ARE DISCLAIMED.  IN NO EVENT SHALL MICROCHIP BE LIABLE FOR ANY DIRECT, INDIREC
      +                          T,
    70                           ; INCIDENTAL, SPECIAL, EXEMPLARY, OR CONSEQUENTIAL DAMAGES (INCLUDING BUT NOT LIMITED TO
    71                           ; PROCUREMENT OF SUBSTITUTE GOODS OR SERVICES; LOSS OF USE, DATA OR PROFITS; OR BUSINESS
    72                           ; INTERRUPTION) HOWSOEVER CAUSED AND ON ANY THEORY OF LIABILITY, WHETHER IN CONTRACT, ST
      +                          RICT
    73                           ; LIABILITY, OR TORT (INCLUDING NEGLIGENCE OR OTHERWISE) ARISING IN ANY WAY OUT OF THE U
      +                          SE OF
    74                           ; THIS SOFTWARE, EVEN IF ADVISED OF THE POSSIBILITY OF SUCH DAMAGE.
    75                           ; 
    76                           ; 
    77                           ; Code-generator required, PIC16F1827 Definitions
    78                           ; 
    79                           ; SFR Addresses
    80     0000                     	;# 
    81     0001                     	;# 
    82     0002                     	;# 
    83     0003                     	;# 
    84     0004                     	;# 
    85     0005                     	;# 
    86     0006                     	;# 
    87     0007                     	;# 
    88     0008                     	;# 
    89     0009                     	;# 
    90     000A                     	;# 
    91     000B                     	;# 
    92     000C                     	;# 
    93     000D                     	;# 
    94     0011                     	;# 
    95     0012                     	;# 
    96     0013                     	;# 
    97     0014                     	;# 
    98     0015                     	;# 
    99     0016                     	;# 
   100     0016                     	;# 
   101     0017                     	;# 
   102     0018                     	;# 
   103     0019                     	;# 
   104     001A                     	;# 
   105     001B                     	;# 
   106     001C                     	;# 
   107     001E                     	;# 
   108     001F                     	;# 
   109     008C                     	;# 
   110     008D                     	;# 
   111     0091                     	;# 
   112     0092                     	;# 
   113     0093                     	;# 
   114     0094                     	;# 
   115     0095                     	;# 
   116     0096                     	;# 
   117     0097                     	;# 
   118     0098                     	;# 
   119     0099                     	;# 
   120     009A                     	;# 
   121     009B                     	;# 
   122     009B                     	;# 
   123     009C                     	;# 
   124     009D                     	;# 
   125     009E                     	;# 
   126     010C                     	;# 
   127     010D                     	;# 
   128     0111                     	;# 
   129     0112                     	;# 
   130     0113                     	;# 
   131     0114                     	;# 
   132     0115                     	;# 
   133     0116                     	;# 
   134     0117                     	;# 
   135     0118                     	;# 
   136     0119                     	;# 
   137     011A                     	;# 
   138     011B                     	;# 
   139     011D                     	;# 
   140     011E                     	;# 
   141     018C                     	;# 
   142     018D                     	;# 
   143     0191                     	;# 
   144     0191                     	;# 
   145     0192                     	;# 
   146     0193                     	;# 
   147     0193                     	;# 
   148     0193                     	;# 
   149     0194                     	;# 
   150     0195                     	;# 
   151     0196                     	;# 
   152     0199                     	;# 
   153     019A                     	;# 
   154     019B                     	;# 
   155     019B                     	;# 
   156     019B                     	;# 
   157     019B                     	;# 
   158     019C                     	;# 
   159     019C                     	;# 
   160     019D                     	;# 
   161     019E                     	;# 
   162     019F                     	;# 
   163     020C                     	;# 
   164     020D                     	;# 
   165     0211                     	;# 
   166     0211                     	;# 
   167     0212                     	;# 
   168     0212                     	;# 
   169     0213                     	;# 
   170     0213                     	;# 
   171     0214                     	;# 
   172     0214                     	;# 
   173     0215                     	;# 
   174     0215                     	;# 
   175     0215                     	;# 
   176     0216                     	;# 
   177     0216                     	;# 
   178     0217                     	;# 
   179     0217                     	;# 
   180     0219                     	;# 
   181     021A                     	;# 
   182     021B                     	;# 
   183     021C                     	;# 
   184     021D                     	;# 
   185     021E                     	;# 
   186     021F                     	;# 
   187     0291                     	;# 
   188     0291                     	;# 
   189     0292                     	;# 
   190     0293                     	;# 
   191     0294                     	;# 
   192     0295                     	;# 
   193     0295                     	;# 
   194     0296                     	;# 
   195     0298                     	;# 
   196     0298                     	;# 
   197     0299                     	;# 
   198     029A                     	;# 
   199     029B                     	;# 
   200     029C                     	;# 
   201     029C                     	;# 
   202     029D                     	;# 
   203     029E                     	;# 
   204     029E                     	;# 
   205     0311                     	;# 
   206     0311                     	;# 
   207     0312                     	;# 
   208     0313                     	;# 
   209     0318                     	;# 
   210     0318                     	;# 
   211     0319                     	;# 
   212     031A                     	;# 
   213     0394                     	;# 
   214     0395                     	;# 
   215     0396                     	;# 
   216     039A                     	;# 
   217     039C                     	;# 
   218     039D                     	;# 
   219     039E                     	;# 
   220     039F                     	;# 
   221     0415                     	;# 
   222     0416                     	;# 
   223     0417                     	;# 
   224     041C                     	;# 
   225     041D                     	;# 
   226     041E                     	;# 
   227     0FE4                     	;# 
   228     0FE5                     	;# 
   229     0FE6                     	;# 
   230     0FE7                     	;# 
   231     0FE8                     	;# 
   232     0FE9                     	;# 
   233     0FEA                     	;# 
   234     0FEB                     	;# 
   235     0FED                     	;# 
   236     0FEE                     	;# 
   237     0FEF                     	;# 
   238     0000                     	;# 
   239     0001                     	;# 
   240     0002                     	;# 
   241     0003                     	;# 
   242     0004                     	;# 
   243     0005                     	;# 
   244     0006                     	;# 
   245     0007                     	;# 
   246     0008                     	;# 
   247     0009                     	;# 
   248     000A                     	;# 
   249     000B                     	;# 
   250     000C                     	;# 
   251     000D                     	;# 
   252     0011                     	;# 
   253     0012                     	;# 
   254     0013                     	;# 
   255     0014                     	;# 
   256     0015                     	;# 
   257     0016                     	;# 
   258     0016                     	;# 
   259     0017                     	;# 
   260     0018                     	;# 
   261     0019                     	;# 
   262     001A                     	;# 
   263     001B                     	;# 
   264     001C                     	;# 
   265     001E                     	;# 
   266     001F                     	;# 
   267     008C                     	;# 
   268     008D                     	;# 
   269     0091                     	;# 
   270     0092                     	;# 
   271     0093                     	;# 
   272     0094                     	;# 
   273     0095                     	;# 
   274     0096                     	;# 
   275     0097                     	;# 
   276     0098                     	;# 
   277     0099                     	;# 
   278     009A                     	;# 
   279     009B                     	;# 
   280     009B                     	;# 
   281     009C                     	;# 
   282     009D                     	;# 
   283     009E                     	;# 
   284     010C                     	;# 
   285     010D                     	;# 
   286     0111                     	;# 
   287     0112                     	;# 
   288     0113                     	;# 
   289     0114                     	;# 
   290     0115                     	;# 
   291     0116                     	;# 
   292     0117                     	;# 
   293     0118                     	;# 
   294     0119                     	;# 
   295     011A                     	;# 
   296     011B                     	;# 
   297     011D                     	;# 
   298     011E                     	;# 
   299     018C                     	;# 
   300     018D                     	;# 
   301     0191                     	;# 
   302     0191                     	;# 
   303     0192                     	;# 
   304     0193                     	;# 
   305     0193                     	;# 
   306     0193                     	;# 
   307     0194                     	;# 
   308     0195                     	;# 
   309     0196                     	;# 
   310     0199                     	;# 
   311     019A                     	;# 
   312     019B                     	;# 
   313     019B                     	;# 
   314     019B                     	;# 
   315     019B                     	;# 
   316     019C                     	;# 
   317     019C                     	;# 
   318     019D                     	;# 
   319     019E                     	;# 
   320     019F                     	;# 
   321     020C                     	;# 
   322     020D                     	;# 
   323     0211                     	;# 
   324     0211                     	;# 
   325     0212                     	;# 
   326     0212                     	;# 
   327     0213                     	;# 
   328     0213                     	;# 
   329     0214                     	;# 
   330     0214                     	;# 
   331     0215                     	;# 
   332     0215                     	;# 
   333     0215                     	;# 
   334     0216                     	;# 
   335     0216                     	;# 
   336     0217                     	;# 
   337     0217                     	;# 
   338     0219                     	;# 
   339     021A                     	;# 
   340     021B                     	;# 
   341     021C                     	;# 
   342     021D                     	;# 
   343     021E                     	;# 
   344     021F                     	;# 
   345     0291                     	;# 
   346     0291                     	;# 
   347     0292                     	;# 
   348     0293                     	;# 
   349     0294                     	;# 
   350     0295                     	;# 
   351     0295                     	;# 
   352     0296                     	;# 
   353     0298                     	;# 
   354     0298                     	;# 
   355     0299                     	;# 
   356     029A                     	;# 
   357     029B                     	;# 
   358     029C                     	;# 
   359     029C                     	;# 
   360     029D                     	;# 
   361     029E                     	;# 
   362     029E                     	;# 
   363     0311                     	;# 
   364     0311                     	;# 
   365     0312                     	;# 
   366     0313                     	;# 
   367     0318                     	;# 
   368     0318                     	;# 
   369     0319                     	;# 
   370     031A                     	;# 
   371     0394                     	;# 
   372     0395                     	;# 
   373     0396                     	;# 
   374     039A                     	;# 
   375     039C                     	;# 
   376     039D                     	;# 
   377     039E                     	;# 
   378     039F                     	;# 
   379     0415                     	;# 
   380     0416                     	;# 
   381     0417                     	;# 
   382     041C                     	;# 
   383     041D                     	;# 
   384     041E                     	;# 
   385     0FE4                     	;# 
   386     0FE5                     	;# 
   387     0FE6                     	;# 
   388     0FE7                     	;# 
   389     0FE8                     	;# 
   390     0FE9                     	;# 
   391     0FEA                     	;# 
   392     0FEB                     	;# 
   393     0FED                     	;# 
   394     0FEE                     	;# 
   395     0FEF                     	;# 
   396     0000                     	;# 
   397     0001                     	;# 
   398     0002                     	;# 
   399     0003                     	;# 
   400     0004                     	;# 
   401     0005                     	;# 
   402     0006                     	;# 
   403     0007                     	;# 
   404     0008                     	;# 
   405     0009                     	;# 
   406     000A                     	;# 
   407     000B                     	;# 
   408     000C                     	;# 
   409     000D                     	;# 
   410     0011                     	;# 
   411     0012                     	;# 
   412     0013                     	;# 
   413     0014                     	;# 
   414     0015                     	;# 
   415     0016                     	;# 
   416     0016                     	;# 
   417     0017                     	;# 
   418     0018                     	;# 
   419     0019                     	;# 
   420     001A                     	;# 
   421     001B                     	;# 
   422     001C                     	;# 
   423     001E                     	;# 
   424     001F                     	;# 
   425     008C                     	;# 
   426     008D                     	;# 
   427     0091                     	;# 
   428     0092                     	;# 
   429     0093                     	;# 
   430     0094                     	;# 
   431     0095                     	;# 
   432     0096                     	;# 
   433     0097                     	;# 
   434     0098                     	;# 
   435     0099                     	;# 
   436     009A                     	;# 
   437     009B                     	;# 
   438     009B                     	;# 
   439     009C                     	;# 
   440     009D                     	;# 
   441     009E                     	;# 
   442     010C                     	;# 
   443     010D                     	;# 
   444     0111                     	;# 
   445     0112                     	;# 
   446     0113                     	;# 
   447     0114                     	;# 
   448     0115                     	;# 
   449     0116                     	;# 
   450     0117                     	;# 
   451     0118                     	;# 
   452     0119                     	;# 
   453     011A                     	;# 
   454     011B                     	;# 
   455     011D                     	;# 
   456     011E                     	;# 
   457     018C                     	;# 
   458     018D                     	;# 
   459     0191                     	;# 
   460     0191                     	;# 
   461     0192                     	;# 
   462     0193                     	;# 
   463     0193                     	;# 
   464     0193                     	;# 
   465     0194                     	;# 
   466     0195                     	;# 
   467     0196                     	;# 
   468     0199                     	;# 
   469     019A                     	;# 
   470     019B                     	;# 
   471     019B                     	;# 
   472     019B                     	;# 
   473     019B                     	;# 
   474     019C                     	;# 
   475     019C                     	;# 
   476     019D                     	;# 
   477     019E                     	;# 
   478     019F                     	;# 
   479     020C                     	;# 
   480     020D                     	;# 
   481     0211                     	;# 
   482     0211                     	;# 
   483     0212                     	;# 
   484     0212                     	;# 
   485     0213                     	;# 
   486     0213                     	;# 
   487     0214                     	;# 
   488     0214                     	;# 
   489     0215                     	;# 
   490     0215                     	;# 
   491     0215                     	;# 
   492     0216                     	;# 
   493     0216                     	;# 
   494     0217                     	;# 
   495     0217                     	;# 
   496     0219                     	;# 
   497     021A                     	;# 
   498     021B                     	;# 
   499     021C                     	;# 
   500     021D                     	;# 
   501     021E                     	;# 
   502     021F                     	;# 
   503     0291                     	;# 
   504     0291                     	;# 
   505     0292                     	;# 
   506     0293                     	;# 
   507     0294                     	;# 
   508     0295                     	;# 
   509     0295                     	;# 
   510     0296                     	;# 
   511     0298                     	;# 
   512     0298                     	;# 
   513     0299                     	;# 
   514     029A                     	;# 
   515     029B                     	;# 
   516     029C                     	;# 
   517     029C                     	;# 
   518     029D                     	;# 
   519     029E                     	;# 
   520     029E                     	;# 
   521     0311                     	;# 
   522     0311                     	;# 
   523     0312                     	;# 
   524     0313                     	;# 
   525     0318                     	;# 
   526     0318                     	;# 
   527     0319                     	;# 
   528     031A                     	;# 
   529     0394                     	;# 
   530     0395                     	;# 
   531     0396                     	;# 
   532     039A                     	;# 
   533     039C                     	;# 
   534     039D                     	;# 
   535     039E                     	;# 
   536     039F                     	;# 
   537     0415                     	;# 
   538     0416                     	;# 
   539     0417                     	;# 
   540     041C                     	;# 
   541     041D                     	;# 
   542     041E                     	;# 
   543     0FE4                     	;# 
   544     0FE5                     	;# 
   545     0FE6                     	;# 
   546     0FE7                     	;# 
   547     0FE8                     	;# 
   548     0FE9                     	;# 
   549     0FEA                     	;# 
   550     0FEB                     	;# 
   551     0FED                     	;# 
   552     0FEE                     	;# 
   553     0FEF                     	;# 
   554     0000                     	;# 
   555     0001                     	;# 
   556     0002                     	;# 
   557     0003                     	;# 
   558     0004                     	;# 
   559     0005                     	;# 
   560     0006                     	;# 
   561     0007                     	;# 
   562     0008                     	;# 
   563     0009                     	;# 
   564     000A                     	;# 
   565     000B                     	;# 
   566     000C                     	;# 
   567     000D                     	;# 
   568     0011                     	;# 
   569     0012                     	;# 
   570     0013                     	;# 
   571     0014                     	;# 
   572     0015                     	;# 
   573     0016                     	;# 
   574     0016                     	;# 
   575     0017                     	;# 
   576     0018                     	;# 
   577     0019                     	;# 
   578     001A                     	;# 
   579     001B                     	;# 
   580     001C                     	;# 
   581     001E                     	;# 
   582     001F                     	;# 
   583     008C                     	;# 
   584     008D                     	;# 
   585     0091                     	;# 
   586     0092                     	;# 
   587     0093                     	;# 
   588     0094                     	;# 
   589     0095                     	;# 
   590     0096                     	;# 
   591     0097                     	;# 
   592     0098                     	;# 
   593     0099                     	;# 
   594     009A                     	;# 
   595     009B                     	;# 
   596     009B                     	;# 
   597     009C                     	;# 
   598     009D                     	;# 
   599     009E                     	;# 
   600     010C                     	;# 
   601     010D                     	;# 
   602     0111                     	;# 
   603     0112                     	;# 
   604     0113                     	;# 
   605     0114                     	;# 
   606     0115                     	;# 
   607     0116                     	;# 
   608     0117                     	;# 
   609     0118                     	;# 
   610     0119                     	;# 
   611     011A                     	;# 
   612     011B                     	;# 
   613     011D                     	;# 
   614     011E                     	;# 
   615     018C                     	;# 
   616     018D                     	;# 
   617     0191                     	;# 
   618     0191                     	;# 
   619     0192                     	;# 
   620     0193                     	;# 
   621     0193                     	;# 
   622     0193                     	;# 
   623     0194                     	;# 
   624     0195                     	;# 
   625     0196                     	;# 
   626     0199                     	;# 
   627     019A                     	;# 
   628     019B                     	;# 
   629     019B                     	;# 
   630     019B                     	;# 
   631     019B                     	;# 
   632     019C                     	;# 
   633     019C                     	;# 
   634     019D                     	;# 
   635     019E                     	;# 
   636     019F                     	;# 
   637     020C                     	;# 
   638     020D                     	;# 
   639     0211                     	;# 
   640     0211                     	;# 
   641     0212                     	;# 
   642     0212                     	;# 
   643     0213                     	;# 
   644     0213                     	;# 
   645     0214                     	;# 
   646     0214                     	;# 
   647     0215                     	;# 
   648     0215                     	;# 
   649     0215                     	;# 
   650     0216                     	;# 
   651     0216                     	;# 
   652     0217                     	;# 
   653     0217                     	;# 
   654     0219                     	;# 
   655     021A                     	;# 
   656     021B                     	;# 
   657     021C                     	;# 
   658     021D                     	;# 
   659     021E                     	;# 
   660     021F                     	;# 
   661     0291                     	;# 
   662     0291                     	;# 
   663     0292                     	;# 
   664     0293                     	;# 
   665     0294                     	;# 
   666     0295                     	;# 
   667     0295                     	;# 
   668     0296                     	;# 
   669     0298                     	;# 
   670     0298                     	;# 
   671     0299                     	;# 
   672     029A                     	;# 
   673     029B                     	;# 
   674     029C                     	;# 
   675     029C                     	;# 
   676     029D                     	;# 
   677     029E                     	;# 
   678     029E                     	;# 
   679     0311                     	;# 
   680     0311                     	;# 
   681     0312                     	;# 
   682     0313                     	;# 
   683     0318                     	;# 
   684     0318                     	;# 
   685     0319                     	;# 
   686     031A                     	;# 
   687     0394                     	;# 
   688     0395                     	;# 
   689     0396                     	;# 
   690     039A                     	;# 
   691     039C                     	;# 
   692     039D                     	;# 
   693     039E                     	;# 
   694     039F                     	;# 
   695     0415                     	;# 
   696     0416                     	;# 
   697     0417                     	;# 
   698     041C                     	;# 
   699     041D                     	;# 
   700     041E                     	;# 
   701     0FE4                     	;# 
   702     0FE5                     	;# 
   703     0FE6                     	;# 
   704     0FE7                     	;# 
   705     0FE8                     	;# 
   706     0FE9                     	;# 
   707     0FEA                     	;# 
   708     0FEB                     	;# 
   709     0FED                     	;# 
   710     0FEE                     	;# 
   711     0FEF                     	;# 
   712     0000                     	;# 
   713     0001                     	;# 
   714     0002                     	;# 
   715     0003                     	;# 
   716     0004                     	;# 
   717     0005                     	;# 
   718     0006                     	;# 
   719     0007                     	;# 
   720     0008                     	;# 
   721     0009                     	;# 
   722     000A                     	;# 
   723     000B                     	;# 
   724     000C                     	;# 
   725     000D                     	;# 
   726     0011                     	;# 
   727     0012                     	;# 
   728     0013                     	;# 
   729     0014                     	;# 
   730     0015                     	;# 
   731     0016                     	;# 
   732     0016                     	;# 
   733     0017                     	;# 
   734     0018                     	;# 
   735     0019                     	;# 
   736     001A                     	;# 
   737     001B                     	;# 
   738     001C                     	;# 
   739     001E                     	;# 
   740     001F                     	;# 
   741     008C                     	;# 
   742     008D                     	;# 
   743     0091                     	;# 
   744     0092                     	;# 
   745     0093                     	;# 
   746     0094                     	;# 
   747     0095                     	;# 
   748     0096                     	;# 
   749     0097                     	;# 
   750     0098                     	;# 
   751     0099                     	;# 
   752     009A                     	;# 
   753     009B                     	;# 
   754     009B                     	;# 
   755     009C                     	;# 
   756     009D                     	;# 
   757     009E                     	;# 
   758     010C                     	;# 
   759     010D                     	;# 
   760     0111                     	;# 
   761     0112                     	;# 
   762     0113                     	;# 
   763     0114                     	;# 
   764     0115                     	;# 
   765     0116                     	;# 
   766     0117                     	;# 
   767     0118                     	;# 
   768     0119                     	;# 
   769     011A                     	;# 
   770     011B                     	;# 
   771     011D                     	;# 
   772     011E                     	;# 
   773     018C                     	;# 
   774     018D                     	;# 
   775     0191                     	;# 
   776     0191                     	;# 
   777     0192                     	;# 
   778     0193                     	;# 
   779     0193                     	;# 
   780     0193                     	;# 
   781     0194                     	;# 
   782     0195                     	;# 
   783     0196                     	;# 
   784     0199                     	;# 
   785     019A                     	;# 
   786     019B                     	;# 
   787     019B                     	;# 
   788     019B                     	;# 
   789     019B                     	;# 
   790     019C                     	;# 
   791     019C                     	;# 
   792     019D                     	;# 
   793     019E                     	;# 
   794     019F                     	;# 
   795     020C                     	;# 
   796     020D                     	;# 
   797     0211                     	;# 
   798     0211                     	;# 
   799     0212                     	;# 
   800     0212                     	;# 
   801     0213                     	;# 
   802     0213                     	;# 
   803     0214                     	;# 
   804     0214                     	;# 
   805     0215                     	;# 
   806     0215                     	;# 
   807     0215                     	;# 
   808     0216                     	;# 
   809     0216                     	;# 
   810     0217                     	;# 
   811     0217                     	;# 
   812     0219                     	;# 
   813     021A                     	;# 
   814     021B                     	;# 
   815     021C                     	;# 
   816     021D                     	;# 
   817     021E                     	;# 
   818     021F                     	;# 
   819     0291                     	;# 
   820     0291                     	;# 
   821     0292                     	;# 
   822     0293                     	;# 
   823     0294                     	;# 
   824     0295                     	;# 
   825     0295                     	;# 
   826     0296                     	;# 
   827     0298                     	;# 
   828     0298                     	;# 
   829     0299                     	;# 
   830     029A                     	;# 
   831     029B                     	;# 
   832     029C                     	;# 
   833     029C                     	;# 
   834     029D                     	;# 
   835     029E                     	;# 
   836     029E                     	;# 
   837     0311                     	;# 
   838     0311                     	;# 
   839     0312                     	;# 
   840     0313                     	;# 
   841     0318                     	;# 
   842     0318                     	;# 
   843     0319                     	;# 
   844     031A                     	;# 
   845     0394                     	;# 
   846     0395                     	;# 
   847     0396                     	;# 
   848     039A                     	;# 
   849     039C                     	;# 
   850     039D                     	;# 
   851     039E                     	;# 
   852     039F                     	;# 
   853     0415                     	;# 
   854     0416                     	;# 
   855     0417                     	;# 
   856     041C                     	;# 
   857     041D                     	;# 
   858     041E                     	;# 
   859     0FE4                     	;# 
   860     0FE5                     	;# 
   861     0FE6                     	;# 
   862     0FE7                     	;# 
   863     0FE8                     	;# 
   864     0FE9                     	;# 
   865     0FEA                     	;# 
   866     0FEB                     	;# 
   867     0FED                     	;# 
   868     0FEE                     	;# 
   869     0FEF                     	;# 
   870     0000                     	;# 
   871     0001                     	;# 
   872     0002                     	;# 
   873     0003                     	;# 
   874     0004                     	;# 
   875     0005                     	;# 
   876     0006                     	;# 
   877     0007                     	;# 
   878     0008                     	;# 
   879     0009                     	;# 
   880     000A                     	;# 
   881     000B                     	;# 
   882     000C                     	;# 
   883     000D                     	;# 
   884     0011                     	;# 
   885     0012                     	;# 
   886     0013                     	;# 
   887     0014                     	;# 
   888     0015                     	;# 
   889     0016                     	;# 
   890     0016                     	;# 
   891     0017                     	;# 
   892     0018                     	;# 
   893     0019                     	;# 
   894     001A                     	;# 
   895     001B                     	;# 
   896     001C                     	;# 
   897     001E                     	;# 
   898     001F                     	;# 
   899     008C                     	;# 
   900     008D                     	;# 
   901     0091                     	;# 
   902     0092                     	;# 
   903     0093                     	;# 
   904     0094                     	;# 
   905     0095                     	;# 
   906     0096                     	;# 
   907     0097                     	;# 
   908     0098                     	;# 
   909     0099                     	;# 
   910     009A                     	;# 
   911     009B                     	;# 
   912     009B                     	;# 
   913     009C                     	;# 
   914     009D                     	;# 
   915     009E                     	;# 
   916     010C                     	;# 
   917     010D                     	;# 
   918     0111                     	;# 
   919     0112                     	;# 
   920     0113                     	;# 
   921     0114                     	;# 
   922     0115                     	;# 
   923     0116                     	;# 
   924     0117                     	;# 
   925     0118                     	;# 
   926     0119                     	;# 
   927     011A                     	;# 
   928     011B                     	;# 
   929     011D                     	;# 
   930     011E                     	;# 
   931     018C                     	;# 
   932     018D                     	;# 
   933     0191                     	;# 
   934     0191                     	;# 
   935     0192                     	;# 
   936     0193                     	;# 
   937     0193                     	;# 
   938     0193                     	;# 
   939     0194                     	;# 
   940     0195                     	;# 
   941     0196                     	;# 
   942     0199                     	;# 
   943     019A                     	;# 
   944     019B                     	;# 
   945     019B                     	;# 
   946     019B                     	;# 
   947     019B                     	;# 
   948     019C                     	;# 
   949     019C                     	;# 
   950     019D                     	;# 
   951     019E                     	;# 
   952     019F                     	;# 
   953     020C                     	;# 
   954     020D                     	;# 
   955     0211                     	;# 
   956     0211                     	;# 
   957     0212                     	;# 
   958     0212                     	;# 
   959     0213                     	;# 
   960     0213                     	;# 
   961     0214                     	;# 
   962     0214                     	;# 
   963     0215                     	;# 
   964     0215                     	;# 
   965     0215                     	;# 
   966     0216                     	;# 
   967     0216                     	;# 
   968     0217                     	;# 
   969     0217                     	;# 
   970     0219                     	;# 
   971     021A                     	;# 
   972     021B                     	;# 
   973     021C                     	;# 
   974     021D                     	;# 
   975     021E                     	;# 
   976     021F                     	;# 
   977     0291                     	;# 
   978     0291                     	;# 
   979     0292                     	;# 
   980     0293                     	;# 
   981     0294                     	;# 
   982     0295                     	;# 
   983     0295                     	;# 
   984     0296                     	;# 
   985     0298                     	;# 
   986     0298                     	;# 
   987     0299                     	;# 
   988     029A                     	;# 
   989     029B                     	;# 
   990     029C                     	;# 
   991     029C                     	;# 
   992     029D                     	;# 
   993     029E                     	;# 
   994     029E                     	;# 
   995     0311                     	;# 
   996     0311                     	;# 
   997     0312                     	;# 
   998     0313                     	;# 
   999     0318                     	;# 
  1000     0318                     	;# 
  1001     0319                     	;# 
  1002     031A                     	;# 
  1003     0394                     	;# 
  1004     0395                     	;# 
  1005     0396                     	;# 
  1006     039A                     	;# 
  1007     039C                     	;# 
  1008     039D                     	;# 
  1009     039E                     	;# 
  1010     039F                     	;# 
  1011     0415                     	;# 
  1012     0416                     	;# 
  1013     0417                     	;# 
  1014     041C                     	;# 
  1015     041D                     	;# 
  1016     041E                     	;# 
  1017     0FE4                     	;# 
  1018     0FE5                     	;# 
  1019     0FE6                     	;# 
  1020     0FE7                     	;# 
  1021     0FE8                     	;# 
  1022     0FE9                     	;# 
  1023     0FEA                     	;# 
  1024     0FEB                     	;# 
  1025     0FED                     	;# 
  1026     0FEE                     	;# 
  1027     0FEF                     	;# 
  1028     0000                     	;# 
  1029     0001                     	;# 
  1030     0002                     	;# 
  1031     0003                     	;# 
  1032     0004                     	;# 
  1033     0005                     	;# 
  1034     0006                     	;# 
  1035     0007                     	;# 
  1036     0008                     	;# 
  1037     0009                     	;# 
  1038     000A                     	;# 
  1039     000B                     	;# 
  1040     000C                     	;# 
  1041     000D                     	;# 
  1042     0011                     	;# 
  1043     0012                     	;# 
  1044     0013                     	;# 
  1045     0014                     	;# 
  1046     0015                     	;# 
  1047     0016                     	;# 
  1048     0016                     	;# 
  1049     0017                     	;# 
  1050     0018                     	;# 
  1051     0019                     	;# 
  1052     001A                     	;# 
  1053     001B                     	;# 
  1054     001C                     	;# 
  1055     001E                     	;# 
  1056     001F                     	;# 
  1057     008C                     	;# 
  1058     008D                     	;# 
  1059     0091                     	;# 
  1060     0092                     	;# 
  1061     0093                     	;# 
  1062     0094                     	;# 
  1063     0095                     	;# 
  1064     0096                     	;# 
  1065     0097                     	;# 
  1066     0098                     	;# 
  1067     0099                     	;# 
  1068     009A                     	;# 
  1069     009B                     	;# 
  1070     009B                     	;# 
  1071     009C                     	;# 
  1072     009D                     	;# 
  1073     009E                     	;# 
  1074     010C                     	;# 
  1075     010D                     	;# 
  1076     0111                     	;# 
  1077     0112                     	;# 
  1078     0113                     	;# 
  1079     0114                     	;# 
  1080     0115                     	;# 
  1081     0116                     	;# 
  1082     0117                     	;# 
  1083     0118                     	;# 
  1084     0119                     	;# 
  1085     011A                     	;# 
  1086     011B                     	;# 
  1087     011D                     	;# 
  1088     011E                     	;# 
  1089     018C                     	;# 
  1090     018D                     	;# 
  1091     0191                     	;# 
  1092     0191                     	;# 
  1093     0192                     	;# 
  1094     0193                     	;# 
  1095     0193                     	;# 
  1096     0193                     	;# 
  1097     0194                     	;# 
  1098     0195                     	;# 
  1099     0196                     	;# 
  1100     0199                     	;# 
  1101     019A                     	;# 
  1102     019B                     	;# 
  1103     019B                     	;# 
  1104     019B                     	;# 
  1105     019B                     	;# 
  1106     019C                     	;# 
  1107     019C                     	;# 
  1108     019D                     	;# 
  1109     019E                     	;# 
  1110     019F                     	;# 
  1111     020C                     	;# 
  1112     020D                     	;# 
  1113     0211                     	;# 
  1114     0211                     	;# 
  1115     0212                     	;# 
  1116     0212                     	;# 
  1117     0213                     	;# 
  1118     0213                     	;# 
  1119     0214                     	;# 
  1120     0214                     	;# 
  1121     0215                     	;# 
  1122     0215                     	;# 
  1123     0215                     	;# 
  1124     0216                     	;# 
  1125     0216                     	;# 
  1126     0217                     	;# 
  1127     0217                     	;# 
  1128     0219                     	;# 
  1129     021A                     	;# 
  1130     021B                     	;# 
  1131     021C                     	;# 
  1132     021D                     	;# 
  1133     021E                     	;# 
  1134     021F                     	;# 
  1135     0291                     	;# 
  1136     0291                     	;# 
  1137     0292                     	;# 
  1138     0293                     	;# 
  1139     0294                     	;# 
  1140     0295                     	;# 
  1141     0295                     	;# 
  1142     0296                     	;# 
  1143     0298                     	;# 
  1144     0298                     	;# 
  1145     0299                     	;# 
  1146     029A                     	;# 
  1147     029B                     	;# 
  1148     029C                     	;# 
  1149     029C                     	;# 
  1150     029D                     	;# 
  1151     029E                     	;# 
  1152     029E                     	;# 
  1153     0311                     	;# 
  1154     0311                     	;# 
  1155     0312                     	;# 
  1156     0313                     	;# 
  1157     0318                     	;# 
  1158     0318                     	;# 
  1159     0319                     	;# 
  1160     031A                     	;# 
  1161     0394                     	;# 
  1162     0395                     	;# 
  1163     0396                     	;# 
  1164     039A                     	;# 
  1165     039C                     	;# 
  1166     039D                     	;# 
  1167     039E                     	;# 
  1168     039F                     	;# 
  1169     0415                     	;# 
  1170     0416                     	;# 
  1171     0417                     	;# 
  1172     041C                     	;# 
  1173     041D                     	;# 
  1174     041E                     	;# 
  1175     0FE4                     	;# 
  1176     0FE5                     	;# 
  1177     0FE6                     	;# 
  1178     0FE7                     	;# 
  1179     0FE8                     	;# 
  1180     0FE9                     	;# 
  1181     0FEA                     	;# 
  1182     0FEB                     	;# 
  1183     0FED                     	;# 
  1184     0FEE                     	;# 
  1185     0FEF                     	;# 
  1186     0000                     	;# 
  1187     0001                     	;# 
  1188     0002                     	;# 
  1189     0003                     	;# 
  1190     0004                     	;# 
  1191     0005                     	;# 
  1192     0006                     	;# 
  1193     0007                     	;# 
  1194     0008                     	;# 
  1195     0009                     	;# 
  1196     000A                     	;# 
  1197     000B                     	;# 
  1198     000C                     	;# 
  1199     000D                     	;# 
  1200     0011                     	;# 
  1201     0012                     	;# 
  1202     0013                     	;# 
  1203     0014                     	;# 
  1204     0015                     	;# 
  1205     0016                     	;# 
  1206     0016                     	;# 
  1207     0017                     	;# 
  1208     0018                     	;# 
  1209     0019                     	;# 
  1210     001A                     	;# 
  1211     001B                     	;# 
  1212     001C                     	;# 
  1213     001E                     	;# 
  1214     001F                     	;# 
  1215     008C                     	;# 
  1216     008D                     	;# 
  1217     0091                     	;# 
  1218     0092                     	;# 
  1219     0093                     	;# 
  1220     0094                     	;# 
  1221     0095                     	;# 
  1222     0096                     	;# 
  1223     0097                     	;# 
  1224     0098                     	;# 
  1225     0099                     	;# 
  1226     009A                     	;# 
  1227     009B                     	;# 
  1228     009B                     	;# 
  1229     009C                     	;# 
  1230     009D                     	;# 
  1231     009E                     	;# 
  1232     010C                     	;# 
  1233     010D                     	;# 
  1234     0111                     	;# 
  1235     0112                     	;# 
  1236     0113                     	;# 
  1237     0114                     	;# 
  1238     0115                     	;# 
  1239     0116                     	;# 
  1240     0117                     	;# 
  1241     0118                     	;# 
  1242     0119                     	;# 
  1243     011A                     	;# 
  1244     011B                     	;# 
  1245     011D                     	;# 
  1246     011E                     	;# 
  1247     018C                     	;# 
  1248     018D                     	;# 
  1249     0191                     	;# 
  1250     0191                     	;# 
  1251     0192                     	;# 
  1252     0193                     	;# 
  1253     0193                     	;# 
  1254     0193                     	;# 
  1255     0194                     	;# 
  1256     0195                     	;# 
  1257     0196                     	;# 
  1258     0199                     	;# 
  1259     019A                     	;# 
  1260     019B                     	;# 
  1261     019B                     	;# 
  1262     019B                     	;# 
  1263     019B                     	;# 
  1264     019C                     	;# 
  1265     019C                     	;# 
  1266     019D                     	;# 
  1267     019E                     	;# 
  1268     019F                     	;# 
  1269     020C                     	;# 
  1270     020D                     	;# 
  1271     0211                     	;# 
  1272     0211                     	;# 
  1273     0212                     	;# 
  1274     0212                     	;# 
  1275     0213                     	;# 
  1276     0213                     	;# 
  1277     0214                     	;# 
  1278     0214                     	;# 
  1279     0215                     	;# 
  1280     0215                     	;# 
  1281     0215                     	;# 
  1282     0216                     	;# 
  1283     0216                     	;# 
  1284     0217                     	;# 
  1285     0217                     	;# 
  1286     0219                     	;# 
  1287     021A                     	;# 
  1288     021B                     	;# 
  1289     021C                     	;# 
  1290     021D                     	;# 
  1291     021E                     	;# 
  1292     021F                     	;# 
  1293     0291                     	;# 
  1294     0291                     	;# 
  1295     0292                     	;# 
  1296     0293                     	;# 
  1297     0294                     	;# 
  1298     0295                     	;# 
  1299     0295                     	;# 
  1300     0296                     	;# 
  1301     0298                     	;# 
  1302     0298                     	;# 
  1303     0299                     	;# 
  1304     029A                     	;# 
  1305     029B                     	;# 
  1306     029C                     	;# 
  1307     029C                     	;# 
  1308     029D                     	;# 
  1309     029E                     	;# 
  1310     029E                     	;# 
  1311     0311                     	;# 
  1312     0311                     	;# 
  1313     0312                     	;# 
  1314     0313                     	;# 
  1315     0318                     	;# 
  1316     0318                     	;# 
  1317     0319                     	;# 
  1318     031A                     	;# 
  1319     0394                     	;# 
  1320     0395                     	;# 
  1321     0396                     	;# 
  1322     039A                     	;# 
  1323     039C                     	;# 
  1324     039D                     	;# 
  1325     039E                     	;# 
  1326     039F                     	;# 
  1327     0415                     	;# 
  1328     0416                     	;# 
  1329     0417                     	;# 
  1330     041C                     	;# 
  1331     041D                     	;# 
  1332     041E                     	;# 
  1333     0FE4                     	;# 
  1334     0FE5                     	;# 
  1335     0FE6                     	;# 
  1336     0FE7                     	;# 
  1337     0FE8                     	;# 
  1338     0FE9                     	;# 
  1339     0FEA                     	;# 
  1340     0FEB                     	;# 
  1341     0FED                     	;# 
  1342     0FEE                     	;# 
  1343     0FEF                     	;# 
  1344     0000                     	;# 
  1345     0001                     	;# 
  1346     0002                     	;# 
  1347     0003                     	;# 
  1348     0004                     	;# 
  1349     0005                     	;# 
  1350     0006                     	;# 
  1351     0007                     	;# 
  1352     0008                     	;# 
  1353     0009                     	;# 
  1354     000A                     	;# 
  1355     000B                     	;# 
  1356     000C                     	;# 
  1357     000D                     	;# 
  1358     0011                     	;# 
  1359     0012                     	;# 
  1360     0013                     	;# 
  1361     0014                     	;# 
  1362     0015                     	;# 
  1363     0016                     	;# 
  1364     0016                     	;# 
  1365     0017                     	;# 
  1366     0018                     	;# 
  1367     0019                     	;# 
  1368     001A                     	;# 
  1369     001B                     	;# 
  1370     001C                     	;# 
  1371     001E                     	;# 
  1372     001F                     	;# 
  1373     008C                     	;# 
  1374     008D                     	;# 
  1375     0091                     	;# 
  1376     0092                     	;# 
  1377     0093                     	;# 
  1378     0094                     	;# 
  1379     0095                     	;# 
  1380     0096                     	;# 
  1381     0097                     	;# 
  1382     0098                     	;# 
  1383     0099                     	;# 
  1384     009A                     	;# 
  1385     009B                     	;# 
  1386     009B                     	;# 
  1387     009C                     	;# 
  1388     009D                     	;# 
  1389     009E                     	;# 
  1390     010C                     	;# 
  1391     010D                     	;# 
  1392     0111                     	;# 
  1393     0112                     	;# 
  1394     0113                     	;# 
  1395     0114                     	;# 
  1396     0115                     	;# 
  1397     0116                     	;# 
  1398     0117                     	;# 
  1399     0118                     	;# 
  1400     0119                     	;# 
  1401     011A                     	;# 
  1402     011B                     	;# 
  1403     011D                     	;# 
  1404     011E                     	;# 
  1405     018C                     	;# 
  1406     018D                     	;# 
  1407     0191                     	;# 
  1408     0191                     	;# 
  1409     0192                     	;# 
  1410     0193                     	;# 
  1411     0193                     	;# 
  1412     0193                     	;# 
  1413     0194                     	;# 
  1414     0195                     	;# 
  1415     0196                     	;# 
  1416     0199                     	;# 
  1417     019A                     	;# 
  1418     019B                     	;# 
  1419     019B                     	;# 
  1420     019B                     	;# 
  1421     019B                     	;# 
  1422     019C                     	;# 
  1423     019C                     	;# 
  1424     019D                     	;# 
  1425     019E                     	;# 
  1426     019F                     	;# 
  1427     020C                     	;# 
  1428     020D                     	;# 
  1429     0211                     	;# 
  1430     0211                     	;# 
  1431     0212                     	;# 
  1432     0212                     	;# 
  1433     0213                     	;# 
  1434     0213                     	;# 
  1435     0214                     	;# 
  1436     0214                     	;# 
  1437     0215                     	;# 
  1438     0215                     	;# 
  1439     0215                     	;# 
  1440     0216                     	;# 
  1441     0216                     	;# 
  1442     0217                     	;# 
  1443     0217                     	;# 
  1444     0219                     	;# 
  1445     021A                     	;# 
  1446     021B                     	;# 
  1447     021C                     	;# 
  1448     021D                     	;# 
  1449     021E                     	;# 
  1450     021F                     	;# 
  1451     0291                     	;# 
  1452     0291                     	;# 
  1453     0292                     	;# 
  1454     0293                     	;# 
  1455     0294                     	;# 
  1456     0295                     	;# 
  1457     0295                     	;# 
  1458     0296                     	;# 
  1459     0298                     	;# 
  1460     0298                     	;# 
  1461     0299                     	;# 
  1462     029A                     	;# 
  1463     029B                     	;# 
  1464     029C                     	;# 
  1465     029C                     	;# 
  1466     029D                     	;# 
  1467     029E                     	;# 
  1468     029E                     	;# 
  1469     0311                     	;# 
  1470     0311                     	;# 
  1471     0312                     	;# 
  1472     0313                     	;# 
  1473     0318                     	;# 
  1474     0318                     	;# 
  1475     0319                     	;# 
  1476     031A                     	;# 
  1477     0394                     	;# 
  1478     0395                     	;# 
  1479     0396                     	;# 
  1480     039A                     	;# 
  1481     039C                     	;# 
  1482     039D                     	;# 
  1483     039E                     	;# 
  1484     039F                     	;# 
  1485     0415                     	;# 
  1486     0416                     	;# 
  1487     0417                     	;# 
  1488     041C                     	;# 
  1489     041D                     	;# 
  1490     041E                     	;# 
  1491     0FE4                     	;# 
  1492     0FE5                     	;# 
  1493     0FE6                     	;# 
  1494     0FE7                     	;# 
  1495     0FE8                     	;# 
  1496     0FE9                     	;# 
  1497     0FEA                     	;# 
  1498     0FEB                     	;# 
  1499     0FED                     	;# 
  1500     0FEE                     	;# 
  1501     0FEF                     	;# 
  1502     0000                     	;# 
  1503     0001                     	;# 
  1504     0002                     	;# 
  1505     0003                     	;# 
  1506     0004                     	;# 
  1507     0005                     	;# 
  1508     0006                     	;# 
  1509     0007                     	;# 
  1510     0008                     	;# 
  1511     0009                     	;# 
  1512     000A                     	;# 
  1513     000B                     	;# 
  1514     000C                     	;# 
  1515     000D                     	;# 
  1516     0011                     	;# 
  1517     0012                     	;# 
  1518     0013                     	;# 
  1519     0014                     	;# 
  1520     0015                     	;# 
  1521     0016                     	;# 
  1522     0016                     	;# 
  1523     0017                     	;# 
  1524     0018                     	;# 
  1525     0019                     	;# 
  1526     001A                     	;# 
  1527     001B                     	;# 
  1528     001C                     	;# 
  1529     001E                     	;# 
  1530     001F                     	;# 
  1531     008C                     	;# 
  1532     008D                     	;# 
  1533     0091                     	;# 
  1534     0092                     	;# 
  1535     0093                     	;# 
  1536     0094                     	;# 
  1537     0095                     	;# 
  1538     0096                     	;# 
  1539     0097                     	;# 
  1540     0098                     	;# 
  1541     0099                     	;# 
  1542     009A                     	;# 
  1543     009B                     	;# 
  1544     009B                     	;# 
  1545     009C                     	;# 
  1546     009D                     	;# 
  1547     009E                     	;# 
  1548     010C                     	;# 
  1549     010D                     	;# 
  1550     0111                     	;# 
  1551     0112                     	;# 
  1552     0113                     	;# 
  1553     0114                     	;# 
  1554     0115                     	;# 
  1555     0116                     	;# 
  1556     0117                     	;# 
  1557     0118                     	;# 
  1558     0119                     	;# 
  1559     011A                     	;# 
  1560     011B                     	;# 
  1561     011D                     	;# 
  1562     011E                     	;# 
  1563     018C                     	;# 
  1564     018D                     	;# 
  1565     0191                     	;# 
  1566     0191                     	;# 
  1567     0192                     	;# 
  1568     0193                     	;# 
  1569     0193                     	;# 
  1570     0193                     	;# 
  1571     0194                     	;# 
  1572     0195                     	;# 
  1573     0196                     	;# 
  1574     0199                     	;# 
  1575     019A                     	;# 
  1576     019B                     	;# 
  1577     019B                     	;# 
  1578     019B                     	;# 
  1579     019B                     	;# 
  1580     019C                     	;# 
  1581     019C                     	;# 
  1582     019D                     	;# 
  1583     019E                     	;# 
  1584     019F                     	;# 
  1585     020C                     	;# 
  1586     020D                     	;# 
  1587     0211                     	;# 
  1588     0211                     	;# 
  1589     0212                     	;# 
  1590     0212                     	;# 
  1591     0213                     	;# 
  1592     0213                     	;# 
  1593     0214                     	;# 
  1594     0214                     	;# 
  1595     0215                     	;# 
  1596     0215                     	;# 
  1597     0215                     	;# 
  1598     0216                     	;# 
  1599     0216                     	;# 
  1600     0217                     	;# 
  1601     0217                     	;# 
  1602     0219                     	;# 
  1603     021A                     	;# 
  1604     021B                     	;# 
  1605     021C                     	;# 
  1606     021D                     	;# 
  1607     021E                     	;# 
  1608     021F                     	;# 
  1609     0291                     	;# 
  1610     0291                     	;# 
  1611     0292                     	;# 
  1612     0293                     	;# 
  1613     0294                     	;# 
  1614     0295                     	;# 
  1615     0295                     	;# 
  1616     0296                     	;# 
  1617     0298                     	;# 
  1618     0298                     	;# 
  1619     0299                     	;# 
  1620     029A                     	;# 
  1621     029B                     	;# 
  1622     029C                     	;# 
  1623     029C                     	;# 
  1624     029D                     	;# 
  1625     029E                     	;# 
  1626     029E                     	;# 
  1627     0311                     	;# 
  1628     0311                     	;# 
  1629     0312                     	;# 
  1630     0313                     	;# 
  1631     0318                     	;# 
  1632     0318                     	;# 
  1633     0319                     	;# 
  1634     031A                     	;# 
  1635     0394                     	;# 
  1636     0395                     	;# 
  1637     0396                     	;# 
  1638     039A                     	;# 
  1639     039C                     	;# 
  1640     039D                     	;# 
  1641     039E                     	;# 
  1642     039F                     	;# 
  1643     0415                     	;# 
  1644     0416                     	;# 
  1645     0417                     	;# 
  1646     041C                     	;# 
  1647     041D                     	;# 
  1648     041E                     	;# 
  1649     0FE4                     	;# 
  1650     0FE5                     	;# 
  1651     0FE6                     	;# 
  1652     0FE7                     	;# 
  1653     0FE8                     	;# 
  1654     0FE9                     	;# 
  1655     0FEA                     	;# 
  1656     0FEB                     	;# 
  1657     0FED                     	;# 
  1658     0FEE                     	;# 
  1659     0FEF                     	;# 
  1660     0000                     	;# 
  1661     0001                     	;# 
  1662     0002                     	;# 
  1663     0003                     	;# 
  1664     0004                     	;# 
  1665     0005                     	;# 
  1666     0006                     	;# 
  1667     0007                     	;# 
  1668     0008                     	;# 
  1669     0009                     	;# 
  1670     000A                     	;# 
  1671     000B                     	;# 
  1672     000C                     	;# 
  1673     000D                     	;# 
  1674     0011                     	;# 
  1675     0012                     	;# 
  1676     0013                     	;# 
  1677     0014                     	;# 
  1678     0015                     	;# 
  1679     0016                     	;# 
  1680     0016                     	;# 
  1681     0017                     	;# 
  1682     0018                     	;# 
  1683     0019                     	;# 
  1684     001A                     	;# 
  1685     001B                     	;# 
  1686     001C                     	;# 
  1687     001E                     	;# 
  1688     001F                     	;# 
  1689     008C                     	;# 
  1690     008D                     	;# 
  1691     0091                     	;# 
  1692     0092                     	;# 
  1693     0093                     	;# 
  1694     0094                     	;# 
  1695     0095                     	;# 
  1696     0096                     	;# 
  1697     0097                     	;# 
  1698     0098                     	;# 
  1699     0099                     	;# 
  1700     009A                     	;# 
  1701     009B                     	;# 
  1702     009B                     	;# 
  1703     009C                     	;# 
  1704     009D                     	;# 
  1705     009E                     	;# 
  1706     010C                     	;# 
  1707     010D                     	;# 
  1708     0111                     	;# 
  1709     0112                     	;# 
  1710     0113                     	;# 
  1711     0114                     	;# 
  1712     0115                     	;# 
  1713     0116                     	;# 
  1714     0117                     	;# 
  1715     0118                     	;# 
  1716     0119                     	;# 
  1717     011A                     	;# 
  1718     011B                     	;# 
  1719     011D                     	;# 
  1720     011E                     	;# 
  1721     018C                     	;# 
  1722     018D                     	;# 
  1723     0191                     	;# 
  1724     0191                     	;# 
  1725     0192                     	;# 
  1726     0193                     	;# 
  1727     0193                     	;# 
  1728     0193                     	;# 
  1729     0194                     	;# 
  1730     0195                     	;# 
  1731     0196                     	;# 
  1732     0199                     	;# 
  1733     019A                     	;# 
  1734     019B                     	;# 
  1735     019B                     	;# 
  1736     019B                     	;# 
  1737     019B                     	;# 
  1738     019C                     	;# 
  1739     019C                     	;# 
  1740     019D                     	;# 
  1741     019E                     	;# 
  1742     019F                     	;# 
  1743     020C                     	;# 
  1744     020D                     	;# 
  1745     0211                     	;# 
  1746     0211                     	;# 
  1747     0212                     	;# 
  1748     0212                     	;# 
  1749     0213                     	;# 
  1750     0213                     	;# 
  1751     0214                     	;# 
  1752     0214                     	;# 
  1753     0215                     	;# 
  1754     0215                     	;# 
  1755     0215                     	;# 
  1756     0216                     	;# 
  1757     0216                     	;# 
  1758     0217                     	;# 
  1759     0217                     	;# 
  1760     0219                     	;# 
  1761     021A                     	;# 
  1762     021B                     	;# 
  1763     021C                     	;# 
  1764     021D                     	;# 
  1765     021E                     	;# 
  1766     021F                     	;# 
  1767     0291                     	;# 
  1768     0291                     	;# 
  1769     0292                     	;# 
  1770     0293                     	;# 
  1771     0294                     	;# 
  1772     0295                     	;# 
  1773     0295                     	;# 
  1774     0296                     	;# 
  1775     0298                     	;# 
  1776     0298                     	;# 
  1777     0299                     	;# 
  1778     029A                     	;# 
  1779     029B                     	;# 
  1780     029C                     	;# 
  1781     029C                     	;# 
  1782     029D                     	;# 
  1783     029E                     	;# 
  1784     029E                     	;# 
  1785     0311                     	;# 
  1786     0311                     	;# 
  1787     0312                     	;# 
  1788     0313                     	;# 
  1789     0318                     	;# 
  1790     0318                     	;# 
  1791     0319                     	;# 
  1792     031A                     	;# 
  1793     0394                     	;# 
  1794     0395                     	;# 
  1795     0396                     	;# 
  1796     039A                     	;# 
  1797     039C                     	;# 
  1798     039D                     	;# 
  1799     039E                     	;# 
  1800     039F                     	;# 
  1801     0415                     	;# 
  1802     0416                     	;# 
  1803     0417                     	;# 
  1804     041C                     	;# 
  1805     041D                     	;# 
  1806     041E                     	;# 
  1807     0FE4                     	;# 
  1808     0FE5                     	;# 
  1809     0FE6                     	;# 
  1810     0FE7                     	;# 
  1811     0FE8                     	;# 
  1812     0FE9                     	;# 
  1813     0FEA                     	;# 
  1814     0FEB                     	;# 
  1815     0FED                     	;# 
  1816     0FEE                     	;# 
  1817     0FEF                     	;# 
  1818                           
  1819 ;; Function _EUSART_DefaultFramingErrorHandler is unused but had its address taken
  1820     0000                     
  1821 ;; Function _EUSART_DefaultOverrunErrorHandler is unused but had its address taken
  1822     0000                     
  1823 ;; Function _EUSART_DefaultErrorHandler is unused but had its address taken
  1824     0019                     _T1GCONbits	set	25
  1825     0018                     _T1CONbits	set	24
  1826     0018                     _T1CON	set	24
  1827     0016                     _TMR1L	set	22
  1828     0017                     _TMR1H	set	23
  1829     0019                     _T1GCON	set	25
  1830     001C                     _T2CONbits	set	28
  1831     001C                     _T2CON	set	28
  1832     001A                     _TMR2	set	26
  1833     001B                     _PR2	set	27
  1834     000B                     _INTCONbits	set	11
  1835     0011                     _PIR1bits	set	17
  1836     0091                     _PIE1bits	set	145
  1837     0095                     _OPTION_REGbits	set	149
  1838     008D                     _TRISB	set	141
  1839     008C                     _TRISA	set	140
  1840     009D                     _ADCON0bits	set	157
  1841     009D                     _ADCON0	set	157
  1842     009C                     _ADRESH	set	156
  1843     009B                     _ADRESL	set	155
  1844     009E                     _ADCON1	set	158
  1845     0097                     _WDTCON	set	151
  1846     0098                     _OSCTUNE	set	152
  1847     0099                     _OSCCON	set	153
  1848     04D6                     _PLLR	set	1238
  1849     011E                     _APFCON1	set	286
  1850     011D                     _APFCON0	set	285
  1851     010D                     _LATB	set	269
  1852     010C                     _LATA	set	268
  1853     0116                     _BORCON	set	278
  1854     0117                     _FVRCONbits	set	279
  1855     0117                     _FVRCON	set	279
  1856     018C                     _ANSELA	set	396
  1857     018D                     _ANSELB	set	397
  1858     019A                     _TXREG	set	410
  1859     0199                     _RCREG	set	409
  1860     019D                     _RCSTAbits	set	413
  1861     019E                     _TXSTAbits	set	414
  1862     019C                     _SPBRGH	set	412
  1863     019B                     _SPBRGL	set	411
  1864     019E                     _TXSTA	set	414
  1865     019D                     _RCSTA	set	413
  1866     019F                     _BAUDCON	set	415
  1867     020C                     _WPUA	set	524
  1868     020D                     _WPUB	set	525
  1869     029E                     _CCPTMRS0bits	set	670
  1870     0298                     _CCPR2L	set	664
  1871     0299                     _CCPR2H	set	665
  1872     029D                     _PSTR2CON	set	669
  1873     029B                     _PWM2CON	set	667
  1874     029C                     _ECCP2AS	set	668
  1875     029A                     _CCP2CON	set	666
  1876                           
  1877                           	psect	cinit
  1878     001B                     start_initialization:	
  1879                           ; #config settings
  1880                           
  1881     001B                     __initialization:
  1882                           
  1883                           ; Clear objects allocated to COMMON
  1884     001B  01F6               	clrf	__pbssCOMMON& (0+127)
  1885     001C  01F7               	clrf	(__pbssCOMMON+1)& (0+127)
  1886     001D  01F8               	clrf	(__pbssCOMMON+2)& (0+127)
  1887     001E  01F9               	clrf	(__pbssCOMMON+3)& (0+127)
  1888                           
  1889                           ; Clear objects allocated to BANK0
  1890     001F  0020               	movlb	0	; select bank0
  1891     0020  01EC               	clrf	__pbssBANK0& (0+127)
  1892     0021  01ED               	clrf	(__pbssBANK0+1)& (0+127)
  1893     0022  01EE               	clrf	(__pbssBANK0+2)& (0+127)
  1894     0023  01EF               	clrf	(__pbssBANK0+3)& (0+127)
  1895                           
  1896                           ; Clear objects allocated to BANK1
  1897     0024  30B9               	movlw	low __pbssBANK1
  1898     0025  0084               	movwf	4
  1899     0026  3000               	movlw	high __pbssBANK1
  1900     0027  0085               	movwf	5
  1901     0028  3012               	movlw	18
  1902     0029  318F  2714  3180   	fcall	clear_ram0
  1903     002C                     end_of_initialization:	
  1904                           ;End of C runtime variable initialization code
  1905                           
  1906     002C                     __end_of__initialization:
  1907     002C  107E               	bcf	int$flags,0	;clear compiler interrupt flag (level 1)
  1908     002D  0020               	movlb	0
  1909     002E  3182  2A6B         	ljmp	_main	;jump to C main() function
  1910                           
  1911                           	psect	bssCOMMON
  1912     0076                     __pbssCOMMON:
  1913     0076                     _timer1ReloadVal:
  1914     0076                     	ds	2
  1915     0078                     _activate_tx:
  1916     0078                     	ds	1
  1917     0079                     _eusartRxLastError:
  1918     0079                     	ds	1
  1919                           
  1920                           	psect	bssBANK0
  1921     006C                     __pbssBANK0:
  1922     006C                     TMR1_ISR@CountCallBack:
  1923     006C                     	ds	2
  1924     006E                     _TMR1_InterruptHandler:
  1925     006E                     	ds	2
  1926                           
  1927                           	psect	bssBANK1
  1928     00B9                     __pbssBANK1:
  1929     00B9                     _tx_buffer:
  1930     00B9                     	ds	5
  1931     00BE                     _rx_buffer:
  1932     00BE                     	ds	3
  1933     00C1                     _vTx:
  1934     00C1                     	ds	2
  1935     00C3                     _ADC_InterruptHandler:
  1936     00C3                     	ds	2
  1937     00C5                     _EUSART_ErrorHandler:
  1938     00C5                     	ds	2
  1939     00C7                     _EUSART_OverrunErrorHandler:
  1940     00C7                     	ds	2
  1941     00C9                     _EUSART_FramingErrorHandler:
  1942     00C9                     	ds	2
  1943                           
  1944                           	psect	clrtext
  1945     0F14                     clear_ram0:	
  1946                           ;	Called with FSR0 containing the base address, and
  1947                           ;	WREG with the size to clear
  1948                           
  1949     0F14  0064               	clrwdt	;clear the watchdog before getting into this loop
  1950     0F15                     clrloop0:
  1951     0F15  0180               	clrf	0	;clear RAM location pointed to by FSR
  1952     0F16  3101               	addfsr 0,1
  1953     0F17  0B89               	decfsz	9,f	;Have we reached the end of clearing yet?
  1954     0F18  2F15               	goto	clrloop0	;have we reached the end yet?
  1955     0F19  3400               	retlw	0	;all done for this memory range, return
  1956                           
  1957                           	psect	cstackBANK1
  1958     00A0                     __pcstackBANK1:
  1959     00A0                     ??_main:
  1960                           
  1961                           ; 1 bytes @ 0x0
  1962     00A0                     	ds	5
  1963     00A5                     main@adc_v_temp:
  1964                           
  1965                           ; 2 bytes @ 0x5
  1966     00A5                     	ds	2
  1967     00A7                     main@adc_v_lum:
  1968                           
  1969                           ; 2 bytes @ 0x7
  1970     00A7                     	ds	2
  1971     00A9                     main@duty_c:
  1972                           
  1973                           ; 2 bytes @ 0x9
  1974     00A9                     	ds	2
  1975     00AB                     main@gain:
  1976                           
  1977                           ; 4 bytes @ 0xB
  1978     00AB                     	ds	4
  1979     00AF                     _main$1497:
  1980                           
  1981                           ; 4 bytes @ 0xF
  1982     00AF                     	ds	4
  1983     00B3                     main@porcent_temp:
  1984                           
  1985                           ; 2 bytes @ 0x13
  1986     00B3                     	ds	2
  1987     00B5                     main@porcent_lum:
  1988                           
  1989                           ; 2 bytes @ 0x15
  1990     00B5                     	ds	2
  1991     00B7                     main@i:
  1992                           
  1993                           ; 2 bytes @ 0x17
  1994     00B7                     	ds	2
  1995                           
  1996                           	psect	cstackCOMMON
  1997     0070                     __pcstackCOMMON:
  1998     0070                     ?_PIN_MANAGER_Initialize:
  1999     0070                     ?_OSCILLATOR_Initialize:	
  2000                           ; 1 bytes @ 0x0
  2001                           
  2002     0070                     ?_WDT_Initialize:	
  2003                           ; 1 bytes @ 0x0
  2004                           
  2005     0070                     ?_EPWM2_Initialize:	
  2006                           ; 1 bytes @ 0x0
  2007                           
  2008     0070                     ?_ADC_Initialize:	
  2009                           ; 1 bytes @ 0x0
  2010                           
  2011     0070                     ?_TMR2_Initialize:	
  2012                           ; 1 bytes @ 0x0
  2013                           
  2014     0070                     ?_TMR1_Initialize:	
  2015                           ; 1 bytes @ 0x0
  2016                           
  2017     0070                     ?_TMR1_ISR:	
  2018                           ; 1 bytes @ 0x0
  2019                           
  2020     0070                     ?_TMR1_DefaultInterruptHandler:	
  2021                           ; 1 bytes @ 0x0
  2022                           
  2023     0070                     ??_TMR1_DefaultInterruptHandler:	
  2024                           ; 1 bytes @ 0x0
  2025                           
  2026     0070                     ?_TMR1_CallBack:	
  2027                           ; 1 bytes @ 0x0
  2028                           
  2029     0070                     ?_FVR_Initialize:	
  2030                           ; 1 bytes @ 0x0
  2031                           
  2032     0070                     ?_EUSART_Initialize:	
  2033                           ; 1 bytes @ 0x0
  2034                           
  2035     0070                     ?_EUSART_is_rx_ready:	
  2036                           ; 1 bytes @ 0x0
  2037                           
  2038     0070                     ?_EUSART_Read:	
  2039                           ; 1 bytes @ 0x0
  2040                           
  2041     0070                     ?_EUSART_Write:	
  2042                           ; 1 bytes @ 0x0
  2043                           
  2044     0070                     ??_EUSART_Write:	
  2045                           ; 1 bytes @ 0x0
  2046                           
  2047     0070                     ?_SYSTEM_Initialize:	
  2048                           ; 1 bytes @ 0x0
  2049                           
  2050     0070                     ?_enviar_tx:	
  2051                           ; 1 bytes @ 0x0
  2052                           
  2053     0070                     ?_main:	
  2054                           ; 1 bytes @ 0x0
  2055                           
  2056     0070                     ?_INTERRUPT_InterruptManager:	
  2057                           ; 1 bytes @ 0x0
  2058                           
  2059     0070                     ?_TMR1_WriteTimer:	
  2060                           ; 1 bytes @ 0x0
  2061                           
  2062     0070                     EUSART_Write@txData:	
  2063                           ; 1 bytes @ 0x0
  2064                           
  2065     0070                     TMR1_WriteTimer@timerVal:	
  2066                           ; 1 bytes @ 0x0
  2067                           
  2068                           
  2069                           ; 2 bytes @ 0x0
  2070     0070                     	ds	1
  2071     0071                     ??_enviar_tx:
  2072                           
  2073                           ; 1 bytes @ 0x1
  2074     0071                     	ds	1
  2075     0072                     ??_TMR1_WriteTimer:
  2076     0072                     enviar_tx@i:	
  2077                           ; 1 bytes @ 0x2
  2078                           
  2079                           
  2080                           ; 2 bytes @ 0x2
  2081     0072                     	ds	2
  2082     0074                     ?_EUSART_SetFramingErrorHandler:
  2083     0074                     ?_EUSART_SetOverrunErrorHandler:	
  2084                           ; 1 bytes @ 0x4
  2085                           
  2086     0074                     ?_EUSART_SetErrorHandler:	
  2087                           ; 1 bytes @ 0x4
  2088                           
  2089     0074                     ??_PIN_MANAGER_Initialize:	
  2090                           ; 1 bytes @ 0x4
  2091                           
  2092     0074                     ??_OSCILLATOR_Initialize:	
  2093                           ; 1 bytes @ 0x4
  2094                           
  2095     0074                     ??_WDT_Initialize:	
  2096                           ; 1 bytes @ 0x4
  2097                           
  2098     0074                     ??_EPWM2_Initialize:	
  2099                           ; 1 bytes @ 0x4
  2100                           
  2101     0074                     ??_ADC_Initialize:	
  2102                           ; 1 bytes @ 0x4
  2103                           
  2104     0074                     ??_TMR2_Initialize:	
  2105                           ; 1 bytes @ 0x4
  2106                           
  2107     0074                     ?_TMR1_SetInterruptHandler:	
  2108                           ; 1 bytes @ 0x4
  2109                           
  2110     0074                     ?_EPWM2_LoadDutyValue:	
  2111                           ; 1 bytes @ 0x4
  2112                           
  2113     0074                     ??_TMR1_ISR:	
  2114                           ; 1 bytes @ 0x4
  2115                           
  2116     0074                     ??_TMR1_CallBack:	
  2117                           ; 1 bytes @ 0x4
  2118                           
  2119     0074                     ??_FVR_Initialize:	
  2120                           ; 1 bytes @ 0x4
  2121                           
  2122     0074                     ??_EUSART_is_rx_ready:	
  2123                           ; 1 bytes @ 0x4
  2124                           
  2125     0074                     ??_EUSART_Read:	
  2126                           ; 1 bytes @ 0x4
  2127                           
  2128     0074                     ??_INTERRUPT_InterruptManager:	
  2129                           ; 1 bytes @ 0x4
  2130                           
  2131     0074                     ?__Umul8_16:	
  2132                           ; 1 bytes @ 0x4
  2133                           
  2134     0074                     ?_ADC_GetConversion:	
  2135                           ; 2 bytes @ 0x4
  2136                           
  2137     0074                     __Umul8_16@multiplicand:	
  2138                           ; 2 bytes @ 0x4
  2139                           
  2140     0074                     EUSART_SetFramingErrorHandler@interruptHandler:	
  2141                           ; 1 bytes @ 0x4
  2142                           
  2143     0074                     EUSART_SetOverrunErrorHandler@interruptHandler:	
  2144                           ; 2 bytes @ 0x4
  2145                           
  2146     0074                     EUSART_SetErrorHandler@interruptHandler:	
  2147                           ; 2 bytes @ 0x4
  2148                           
  2149     0074                     EPWM2_LoadDutyValue@dutyValue:	
  2150                           ; 2 bytes @ 0x4
  2151                           
  2152     0074                     TMR1_SetInterruptHandler@InterruptHandler:	
  2153                           ; 2 bytes @ 0x4
  2154                           
  2155                           
  2156                           ; 2 bytes @ 0x4
  2157     0074                     	ds	2
  2158     0076                     ??_EUSART_SetFramingErrorHandler:
  2159     0076                     ??_EUSART_SetOverrunErrorHandler:	
  2160                           ; 1 bytes @ 0x6
  2161                           
  2162     0076                     ??_EUSART_SetErrorHandler:	
  2163                           ; 1 bytes @ 0x6
  2164                           
  2165     0076                     ??_TMR1_Initialize:	
  2166                           ; 1 bytes @ 0x6
  2167                           
  2168     0076                     ??_TMR1_SetInterruptHandler:	
  2169                           ; 1 bytes @ 0x6
  2170                           
  2171     0076                     ??_EUSART_Initialize:	
  2172                           ; 1 bytes @ 0x6
  2173                           
  2174     0076                     ??_SYSTEM_Initialize:	
  2175                           ; 1 bytes @ 0x6
  2176                           
  2177                           
  2178                           	psect	cstackBANK0
  2179     0020                     __pcstackBANK0:	
  2180                           ; 1 bytes @ 0x6
  2181                           
  2182     0020                     ??_EPWM2_LoadDutyValue:
  2183     0020                     ??__Umul8_16:	
  2184                           ; 1 bytes @ 0x0
  2185                           
  2186     0020                     ??_ADC_GetConversion:	
  2187                           ; 1 bytes @ 0x0
  2188                           
  2189     0020                     ?___xxtofl:	
  2190                           ; 1 bytes @ 0x0
  2191                           
  2192     0020                     ___xxtofl@val:	
  2193                           ; 4 bytes @ 0x0
  2194                           
  2195                           
  2196                           ; 4 bytes @ 0x0
  2197     0020                     	ds	1
  2198     0021                     ADC_GetConversion@channel:
  2199                           
  2200                           ; 1 bytes @ 0x1
  2201     0021                     	ds	1
  2202     0022                     __Umul8_16@product:
  2203                           
  2204                           ; 2 bytes @ 0x2
  2205     0022                     	ds	2
  2206     0024                     ??___xxtofl:
  2207     0024                     __Umul8_16@word_mpld:	
  2208                           ; 1 bytes @ 0x4
  2209                           
  2210                           
  2211                           ; 2 bytes @ 0x4
  2212     0024                     	ds	2
  2213     0026                     __Umul8_16@multiplier:
  2214                           
  2215                           ; 1 bytes @ 0x6
  2216     0026                     	ds	2
  2217     0028                     ___xxtofl@sign:
  2218                           
  2219                           ; 1 bytes @ 0x8
  2220     0028                     	ds	1
  2221     0029                     ___xxtofl@exp:
  2222                           
  2223                           ; 1 bytes @ 0x9
  2224     0029                     	ds	1
  2225     002A                     ___xxtofl@arg:
  2226                           
  2227                           ; 4 bytes @ 0xA
  2228     002A                     	ds	4
  2229     002E                     ?___fldiv:
  2230     002E                     ___fldiv@a:	
  2231                           ; 4 bytes @ 0xE
  2232                           
  2233                           
  2234                           ; 4 bytes @ 0xE
  2235     002E                     	ds	4
  2236     0032                     ___fldiv@b:
  2237                           
  2238                           ; 4 bytes @ 0x12
  2239     0032                     	ds	4
  2240     0036                     ??___fldiv:
  2241                           
  2242                           ; 1 bytes @ 0x16
  2243     0036                     	ds	5
  2244     003B                     ___fldiv@rem:
  2245                           
  2246                           ; 4 bytes @ 0x1B
  2247     003B                     	ds	4
  2248     003F                     ___fldiv@sign:
  2249                           
  2250                           ; 1 bytes @ 0x1F
  2251     003F                     	ds	1
  2252     0040                     ___fldiv@new_exp:
  2253                           
  2254                           ; 2 bytes @ 0x20
  2255     0040                     	ds	2
  2256     0042                     ___fldiv@grs:
  2257                           
  2258                           ; 4 bytes @ 0x22
  2259     0042                     	ds	4
  2260     0046                     ___fldiv@bexp:
  2261                           
  2262                           ; 1 bytes @ 0x26
  2263     0046                     	ds	1
  2264     0047                     ___fldiv@aexp:
  2265                           
  2266                           ; 1 bytes @ 0x27
  2267     0047                     	ds	1
  2268     0048                     ?___fltol:
  2269     0048                     ___fltol@f1:	
  2270                           ; 4 bytes @ 0x28
  2271                           
  2272                           
  2273                           ; 4 bytes @ 0x28
  2274     0048                     	ds	4
  2275     004C                     ??___fltol:
  2276                           
  2277                           ; 1 bytes @ 0x2C
  2278     004C                     	ds	4
  2279     0050                     ___fltol@sign1:
  2280                           
  2281                           ; 1 bytes @ 0x30
  2282     0050                     	ds	1
  2283     0051                     ___fltol@exp1:
  2284                           
  2285                           ; 1 bytes @ 0x31
  2286     0051                     	ds	1
  2287     0052                     ?___flmul:
  2288     0052                     ___flmul@b:	
  2289                           ; 4 bytes @ 0x32
  2290                           
  2291                           
  2292                           ; 4 bytes @ 0x32
  2293     0052                     	ds	4
  2294     0056                     ___flmul@a:
  2295                           
  2296                           ; 4 bytes @ 0x36
  2297     0056                     	ds	4
  2298     005A                     ??___flmul:
  2299                           
  2300                           ; 1 bytes @ 0x3A
  2301     005A                     	ds	5
  2302     005F                     ___flmul@sign:
  2303                           
  2304                           ; 1 bytes @ 0x3F
  2305     005F                     	ds	1
  2306     0060                     ___flmul@aexp:
  2307                           
  2308                           ; 1 bytes @ 0x40
  2309     0060                     	ds	1
  2310     0061                     ___flmul@grs:
  2311                           
  2312                           ; 4 bytes @ 0x41
  2313     0061                     	ds	4
  2314     0065                     ___flmul@bexp:
  2315                           
  2316                           ; 1 bytes @ 0x45
  2317     0065                     	ds	1
  2318     0066                     ___flmul@prod:
  2319                           
  2320                           ; 4 bytes @ 0x46
  2321     0066                     	ds	4
  2322     006A                     ___flmul@temp:
  2323                           
  2324                           ; 2 bytes @ 0x4A
  2325     006A                     	ds	2
  2326                           
  2327                           	psect	maintext
  2328     026B                     __pmaintext:	
  2329 ;;
  2330 ;;Main: autosize = 0, tempsize = 5, incstack = 0, save=0
  2331 ;;
  2332 ;; *************** function _main *****************
  2333 ;; Defined at:
  2334 ;;		line 78 in file "main.c"
  2335 ;; Parameters:    Size  Location     Type
  2336 ;;		None
  2337 ;; Auto vars:     Size  Location     Type
  2338 ;;  i               2   23[BANK1 ] int 
  2339 ;;  porcent_lum     2   21[BANK1 ] unsigned short 
  2340 ;;  porcent_temp    2   19[BANK1 ] unsigned short 
  2341 ;;  adc_v_lum       2    7[BANK1 ] unsigned short 
  2342 ;;  adc_v_temp      2    5[BANK1 ] unsigned short 
  2343 ;;  gain            4   11[BANK1 ] float 
  2344 ;;  duty_c          2    9[BANK1 ] unsigned short 
  2345 ;; Return value:  Size  Location     Type
  2346 ;;                  1    wreg      void 
  2347 ;; Registers used:
  2348 ;;		wreg, fsr1l, fsr1h, status,2, status,0, pclath, cstack
  2349 ;; Tracked objects:
  2350 ;;		On entry : B1F/0
  2351 ;;		On exit  : 0/0
  2352 ;;		Unchanged: 0/0
  2353 ;; Data sizes:     COMMON   BANK0   BANK1   BANK2   BANK3   BANK4
  2354 ;;      Params:         0       0       0       0       0       0
  2355 ;;      Locals:         0       0      20       0       0       0
  2356 ;;      Temps:          0       0       5       0       0       0
  2357 ;;      Totals:         0       0      25       0       0       0
  2358 ;;Total ram usage:       25 bytes
  2359 ;; Hardware stack levels required when called: 8
  2360 ;; This function calls:
  2361 ;;		_ADC_GetConversion
  2362 ;;		_EPWM2_LoadDutyValue
  2363 ;;		_EUSART_Read
  2364 ;;		_EUSART_is_rx_ready
  2365 ;;		_SYSTEM_Initialize
  2366 ;;		_TMR1_SetInterruptHandler
  2367 ;;		___fldiv
  2368 ;;		___flmul
  2369 ;;		___fltol
  2370 ;;		___xxtofl
  2371 ;; This function is called by:
  2372 ;;		Startup code after reset
  2373 ;; This function uses a non-reentrant model
  2374 ;;
  2375                           
  2376     026B                     _main:	
  2377                           ;psect for function _main
  2378                           
  2379     026B                     l2537:	
  2380                           ;incstack = 0
  2381                           ; Regs used in _main: [wreg+fsr1l+fsr1h+status,2+status,0+pclath+cstack]
  2382                           
  2383                           
  2384                           ;main.c: 80:     SYSTEM_Initialize();
  2385     026B  318F  27C6  3182   	fcall	_SYSTEM_Initialize
  2386     026E                     l2539:
  2387                           
  2388                           ;main.c: 87:     (INTCONbits.GIE = 1);
  2389     026E  178B               	bsf	11,7	;volatile
  2390     026F                     l2541:
  2391                           
  2392                           ;main.c: 93:     (INTCONbits.PEIE = 1);
  2393     026F  170B               	bsf	11,6	;volatile
  2394                           
  2395                           ;main.c: 94:     TMR1_SetInterruptHandler(enviar_tx);
  2396     0270  3061               	movlw	low _enviar_tx
  2397     0271  00F4               	movwf	TMR1_SetInterruptHandler@InterruptHandler
  2398     0272  3007               	movlw	high _enviar_tx
  2399     0273  00F5               	movwf	TMR1_SetInterruptHandler@InterruptHandler+1
  2400     0274  318F  270E  3182   	fcall	_TMR1_SetInterruptHandler
  2401     0277                     l2543:
  2402                           
  2403                           ;main.c: 97:     float gain = 1;
  2404     0277  303F               	movlw	63
  2405     0278  0021               	movlb	1	; select bank1
  2406     0279  00AE               	movwf	(main@gain+3)^(0+128)
  2407     027A  3080               	movlw	128
  2408     027B  00AD               	movwf	(main@gain+2)^(0+128)
  2409     027C  3000               	movlw	0
  2410     027D  00AC               	movwf	(main@gain+1)^(0+128)
  2411     027E  3000               	movlw	0
  2412     027F  00AB               	movwf	main@gain^(0+128)
  2413     0280                     l2545:
  2414     0280                     l2547:
  2415                           
  2416                           ;main.c: 100:     {;main.c: 101:         uint16_t adc_v_temp = ADC_GetConversion(0);
  2417     0280  3000               	movlw	0
  2418     0281  3187  27E0  3182   	fcall	_ADC_GetConversion
  2419     0284  0875               	movf	?_ADC_GetConversion+1,w
  2420     0285  0021               	movlb	1	; select bank1
  2421     0286  00A6               	movwf	(main@adc_v_temp+1)^(0+128)
  2422     0287  0874               	movf	?_ADC_GetConversion,w
  2423     0288  00A5               	movwf	main@adc_v_temp^(0+128)
  2424     0289                     l2549:
  2425                           
  2426                           ;main.c: 102:         uint16_t adc_v_lum = ADC_GetConversion(1);
  2427     0289  3001               	movlw	1
  2428     028A  3187  27E0  3182   	fcall	_ADC_GetConversion
  2429     028D  0875               	movf	?_ADC_GetConversion+1,w
  2430     028E  0021               	movlb	1	; select bank1
  2431     028F  00A8               	movwf	(main@adc_v_lum+1)^(0+128)
  2432     0290  0874               	movf	?_ADC_GetConversion,w
  2433     0291  00A7               	movwf	main@adc_v_lum^(0+128)
  2434     0292                     l2551:
  2435                           
  2436                           ;main.c: 103:         uint16_t porcent_temp =(uint16_t)((float)adc_v_temp/ 1023.0) * 100
      +                          .0;
  2437     0292  0825               	movf	main@adc_v_temp^(0+128),w
  2438     0293  0020               	movlb	0	; select bank0
  2439     0294  00A0               	movwf	___xxtofl@val
  2440     0295  0021               	movlb	1	; select bank1
  2441     0296  0826               	movf	(main@adc_v_temp+1)^(0+128),w
  2442     0297  0020               	movlb	0	; select bank0
  2443     0298  00A1               	movwf	___xxtofl@val+1
  2444     0299  01A2               	clrf	___xxtofl@val+2
  2445     029A  01A3               	clrf	___xxtofl@val+3
  2446     029B  3000               	movlw	0
  2447     029C  3186  2645  3182   	fcall	___xxtofl
  2448     029F  0020               	movlb	0	; select bank0
  2449     02A0  0823               	movf	?___xxtofl+3,w
  2450     02A1  00B5               	movwf	___fldiv@b+3
  2451     02A2  0822               	movf	?___xxtofl+2,w
  2452     02A3  00B4               	movwf	___fldiv@b+2
  2453     02A4  0821               	movf	?___xxtofl+1,w
  2454     02A5  00B3               	movwf	___fldiv@b+1
  2455     02A6  0820               	movf	?___xxtofl,w
  2456     02A7  00B2               	movwf	___fldiv@b
  2457     02A8  3044               	movlw	68
  2458     02A9  00B1               	movwf	___fldiv@a+3
  2459     02AA  307F               	movlw	127
  2460     02AB  00B0               	movwf	___fldiv@a+2
  2461     02AC  30C0               	movlw	192
  2462     02AD  00AF               	movwf	___fldiv@a+1
  2463     02AE  3000               	movlw	0
  2464     02AF  00AE               	movwf	___fldiv@a
  2465     02B0  3184  249B  3182   	fcall	___fldiv
  2466     02B3  0020               	movlb	0	; select bank0
  2467     02B4  0831               	movf	?___fldiv+3,w
  2468     02B5  00CB               	movwf	___fltol@f1+3
  2469     02B6  0830               	movf	?___fldiv+2,w
  2470     02B7  00CA               	movwf	___fltol@f1+2
  2471     02B8  082F               	movf	?___fldiv+1,w
  2472     02B9  00C9               	movwf	___fltol@f1+1
  2473     02BA  082E               	movf	?___fldiv,w
  2474     02BB  00C8               	movwf	___fltol@f1
  2475     02BC  3186  26F0  3182   	fcall	___fltol
  2476     02BF  0020               	movlb	0	; select bank0
  2477     02C0  0848               	movf	?___fltol,w
  2478     02C1  0021               	movlb	1	; select bank1
  2479     02C2  00AF               	movwf	_main$1497^(0+128)
  2480     02C3  0020               	movlb	0	; select bank0
  2481     02C4  0849               	movf	?___fltol+1,w
  2482     02C5  0021               	movlb	1	; select bank1
  2483     02C6  00B0               	movwf	(_main$1497^(0+128)+1)
  2484     02C7  01B1               	clrf	(_main$1497^(0+128)+2)
  2485     02C8  01B2               	clrf	(_main$1497^(0+128)+3)
  2486     02C9                     l2553:
  2487                           
  2488                           ;main.c: 103:         uint16_t porcent_temp =(uint16_t)((float)adc_v_temp/ 1023.0) * 100
      +                          .0;
  2489     02C9  0832               	movf	(_main$1497+3)^(0+128),w
  2490     02CA  0020               	movlb	0	; select bank0
  2491     02CB  00A3               	movwf	___xxtofl@val+3
  2492     02CC  0021               	movlb	1	; select bank1
  2493     02CD  0831               	movf	(_main$1497+2)^(0+128),w
  2494     02CE  0020               	movlb	0	; select bank0
  2495     02CF  00A2               	movwf	___xxtofl@val+2
  2496     02D0  0021               	movlb	1	; select bank1
  2497     02D1  0830               	movf	(_main$1497+1)^(0+128),w
  2498     02D2  0020               	movlb	0	; select bank0
  2499     02D3  00A1               	movwf	___xxtofl@val+1
  2500     02D4  0021               	movlb	1	; select bank1
  2501     02D5  082F               	movf	_main$1497^(0+128),w
  2502     02D6  0020               	movlb	0	; select bank0
  2503     02D7  00A0               	movwf	___xxtofl@val
  2504     02D8  3000               	movlw	0
  2505     02D9  3186  2645  3182   	fcall	___xxtofl
  2506     02DC  0020               	movlb	0	; select bank0
  2507     02DD  0823               	movf	?___xxtofl+3,w
  2508     02DE  00D9               	movwf	___flmul@a+3
  2509     02DF  0822               	movf	?___xxtofl+2,w
  2510     02E0  00D8               	movwf	___flmul@a+2
  2511     02E1  0821               	movf	?___xxtofl+1,w
  2512     02E2  00D7               	movwf	___flmul@a+1
  2513     02E3  0820               	movf	?___xxtofl,w
  2514     02E4  00D6               	movwf	___flmul@a
  2515     02E5  3042               	movlw	66
  2516     02E6  00D5               	movwf	___flmul@b+3
  2517     02E7  30C8               	movlw	200
  2518     02E8  00D4               	movwf	___flmul@b+2
  2519     02E9  3000               	movlw	0
  2520     02EA  00D3               	movwf	___flmul@b+1
  2521     02EB  3000               	movlw	0
  2522     02EC  00D2               	movwf	___flmul@b
  2523     02ED  3180  2030  3182   	fcall	___flmul
  2524     02F0  0020               	movlb	0	; select bank0
  2525     02F1  0855               	movf	?___flmul+3,w
  2526     02F2  00CB               	movwf	___fltol@f1+3
  2527     02F3  0854               	movf	?___flmul+2,w
  2528     02F4  00CA               	movwf	___fltol@f1+2
  2529     02F5  0853               	movf	?___flmul+1,w
  2530     02F6  00C9               	movwf	___fltol@f1+1
  2531     02F7  0852               	movf	?___flmul,w
  2532     02F8  00C8               	movwf	___fltol@f1
  2533     02F9  3186  26F0  3182   	fcall	___fltol
  2534     02FC  0020               	movlb	0	; select bank0
  2535     02FD  0849               	movf	?___fltol+1,w
  2536     02FE  0021               	movlb	1	; select bank1
  2537     02FF  00B4               	movwf	(main@porcent_temp+1)^(0+128)
  2538     0300  0020               	movlb	0	; select bank0
  2539     0301  0848               	movf	?___fltol,w
  2540     0302  0021               	movlb	1	; select bank1
  2541     0303  00B3               	movwf	main@porcent_temp^(0+128)
  2542     0304                     l2555:
  2543                           
  2544                           ;main.c: 104:         uint16_t porcent_lum = (uint16_t)((float)adc_v_lum/ 1023.0) * 100.
      +                          0;
  2545     0304  0827               	movf	main@adc_v_lum^(0+128),w
  2546     0305  0020               	movlb	0	; select bank0
  2547     0306  00A0               	movwf	___xxtofl@val
  2548     0307  0021               	movlb	1	; select bank1
  2549     0308  0828               	movf	(main@adc_v_lum+1)^(0+128),w
  2550     0309  0020               	movlb	0	; select bank0
  2551     030A  00A1               	movwf	___xxtofl@val+1
  2552     030B  01A2               	clrf	___xxtofl@val+2
  2553     030C  01A3               	clrf	___xxtofl@val+3
  2554     030D  3000               	movlw	0
  2555     030E  3186  2645  3182   	fcall	___xxtofl
  2556     0311  0020               	movlb	0	; select bank0
  2557     0312  0823               	movf	?___xxtofl+3,w
  2558     0313  00B5               	movwf	___fldiv@b+3
  2559     0314  0822               	movf	?___xxtofl+2,w
  2560     0315  00B4               	movwf	___fldiv@b+2
  2561     0316  0821               	movf	?___xxtofl+1,w
  2562     0317  00B3               	movwf	___fldiv@b+1
  2563     0318  0820               	movf	?___xxtofl,w
  2564     0319  00B2               	movwf	___fldiv@b
  2565     031A  3044               	movlw	68
  2566     031B  00B1               	movwf	___fldiv@a+3
  2567     031C  307F               	movlw	127
  2568     031D  00B0               	movwf	___fldiv@a+2
  2569     031E  30C0               	movlw	192
  2570     031F  00AF               	movwf	___fldiv@a+1
  2571     0320  3000               	movlw	0
  2572     0321  00AE               	movwf	___fldiv@a
  2573     0322  3184  249B  3182   	fcall	___fldiv
  2574     0325  0020               	movlb	0	; select bank0
  2575     0326  0831               	movf	?___fldiv+3,w
  2576     0327  00CB               	movwf	___fltol@f1+3
  2577     0328  0830               	movf	?___fldiv+2,w
  2578     0329  00CA               	movwf	___fltol@f1+2
  2579     032A  082F               	movf	?___fldiv+1,w
  2580     032B  00C9               	movwf	___fltol@f1+1
  2581     032C  082E               	movf	?___fldiv,w
  2582     032D  00C8               	movwf	___fltol@f1
  2583     032E  3186  26F0  3182   	fcall	___fltol
  2584     0331  0020               	movlb	0	; select bank0
  2585     0332  0848               	movf	?___fltol,w
  2586     0333  0021               	movlb	1	; select bank1
  2587     0334  00AF               	movwf	_main$1497^(0+128)
  2588     0335  0020               	movlb	0	; select bank0
  2589     0336  0849               	movf	?___fltol+1,w
  2590     0337  0021               	movlb	1	; select bank1
  2591     0338  00B0               	movwf	(_main$1497^(0+128)+1)
  2592     0339  01B1               	clrf	(_main$1497^(0+128)+2)
  2593     033A  01B2               	clrf	(_main$1497^(0+128)+3)
  2594     033B                     l2557:
  2595                           
  2596                           ;main.c: 104:         uint16_t porcent_lum = (uint16_t)((float)adc_v_lum/ 1023.0) * 100.
      +                          0;
  2597     033B  0832               	movf	(_main$1497+3)^(0+128),w
  2598     033C  0020               	movlb	0	; select bank0
  2599     033D  00A3               	movwf	___xxtofl@val+3
  2600     033E  0021               	movlb	1	; select bank1
  2601     033F  0831               	movf	(_main$1497+2)^(0+128),w
  2602     0340  0020               	movlb	0	; select bank0
  2603     0341  00A2               	movwf	___xxtofl@val+2
  2604     0342  0021               	movlb	1	; select bank1
  2605     0343  0830               	movf	(_main$1497+1)^(0+128),w
  2606     0344  0020               	movlb	0	; select bank0
  2607     0345  00A1               	movwf	___xxtofl@val+1
  2608     0346  0021               	movlb	1	; select bank1
  2609     0347  082F               	movf	_main$1497^(0+128),w
  2610     0348  0020               	movlb	0	; select bank0
  2611     0349  00A0               	movwf	___xxtofl@val
  2612     034A  3000               	movlw	0
  2613     034B  3186  2645  3182   	fcall	___xxtofl
  2614     034E  0020               	movlb	0	; select bank0
  2615     034F  0823               	movf	?___xxtofl+3,w
  2616     0350  00D9               	movwf	___flmul@a+3
  2617     0351  0822               	movf	?___xxtofl+2,w
  2618     0352  00D8               	movwf	___flmul@a+2
  2619     0353  0821               	movf	?___xxtofl+1,w
  2620     0354  00D7               	movwf	___flmul@a+1
  2621     0355  0820               	movf	?___xxtofl,w
  2622     0356  00D6               	movwf	___flmul@a
  2623     0357  3042               	movlw	66
  2624     0358  00D5               	movwf	___flmul@b+3
  2625     0359  30C8               	movlw	200
  2626     035A  00D4               	movwf	___flmul@b+2
  2627     035B  3000               	movlw	0
  2628     035C  00D3               	movwf	___flmul@b+1
  2629     035D  3000               	movlw	0
  2630     035E  00D2               	movwf	___flmul@b
  2631     035F  3180  2030  3182   	fcall	___flmul
  2632     0362  0020               	movlb	0	; select bank0
  2633     0363  0855               	movf	?___flmul+3,w
  2634     0364  00CB               	movwf	___fltol@f1+3
  2635     0365  0854               	movf	?___flmul+2,w
  2636     0366  00CA               	movwf	___fltol@f1+2
  2637     0367  0853               	movf	?___flmul+1,w
  2638     0368  00C9               	movwf	___fltol@f1+1
  2639     0369  0852               	movf	?___flmul,w
  2640     036A  00C8               	movwf	___fltol@f1
  2641     036B  3186  26F0  3182   	fcall	___fltol
  2642     036E  0020               	movlb	0	; select bank0
  2643     036F  0849               	movf	?___fltol+1,w
  2644     0370  0021               	movlb	1	; select bank1
  2645     0371  00B6               	movwf	(main@porcent_lum+1)^(0+128)
  2646     0372  0020               	movlb	0	; select bank0
  2647     0373  0848               	movf	?___fltol,w
  2648     0374  0021               	movlb	1	; select bank1
  2649     0375  00B5               	movwf	main@porcent_lum^(0+128)
  2650     0376                     l2559:
  2651                           
  2652                           ;main.c: 105:         porcent_temp = (gain * porcent_temp);
  2653     0376  0833               	movf	main@porcent_temp^(0+128),w
  2654     0377  0020               	movlb	0	; select bank0
  2655     0378  00A0               	movwf	___xxtofl@val
  2656     0379  0021               	movlb	1	; select bank1
  2657     037A  0834               	movf	(main@porcent_temp+1)^(0+128),w
  2658     037B  0020               	movlb	0	; select bank0
  2659     037C  00A1               	movwf	___xxtofl@val+1
  2660     037D  01A2               	clrf	___xxtofl@val+2
  2661     037E  01A3               	clrf	___xxtofl@val+3
  2662     037F  3000               	movlw	0
  2663     0380  3186  2645  3182   	fcall	___xxtofl
  2664     0383  0020               	movlb	0	; select bank0
  2665     0384  0823               	movf	?___xxtofl+3,w
  2666     0385  00D9               	movwf	___flmul@a+3
  2667     0386  0822               	movf	?___xxtofl+2,w
  2668     0387  00D8               	movwf	___flmul@a+2
  2669     0388  0821               	movf	?___xxtofl+1,w
  2670     0389  00D7               	movwf	___flmul@a+1
  2671     038A  0820               	movf	?___xxtofl,w
  2672     038B  00D6               	movwf	___flmul@a
  2673     038C  0021               	movlb	1	; select bank1
  2674     038D  082E               	movf	(main@gain+3)^(0+128),w
  2675     038E  0020               	movlb	0	; select bank0
  2676     038F  00D5               	movwf	___flmul@b+3
  2677     0390  0021               	movlb	1	; select bank1
  2678     0391  082D               	movf	(main@gain+2)^(0+128),w
  2679     0392  0020               	movlb	0	; select bank0
  2680     0393  00D4               	movwf	___flmul@b+2
  2681     0394  0021               	movlb	1	; select bank1
  2682     0395  082C               	movf	(main@gain+1)^(0+128),w
  2683     0396  0020               	movlb	0	; select bank0
  2684     0397  00D3               	movwf	___flmul@b+1
  2685     0398  0021               	movlb	1	; select bank1
  2686     0399  082B               	movf	main@gain^(0+128),w
  2687     039A  0020               	movlb	0	; select bank0
  2688     039B  00D2               	movwf	___flmul@b
  2689     039C  3180  2030  3182   	fcall	___flmul
  2690     039F  0020               	movlb	0	; select bank0
  2691     03A0  0855               	movf	?___flmul+3,w
  2692     03A1  00CB               	movwf	___fltol@f1+3
  2693     03A2  0854               	movf	?___flmul+2,w
  2694     03A3  00CA               	movwf	___fltol@f1+2
  2695     03A4  0853               	movf	?___flmul+1,w
  2696     03A5  00C9               	movwf	___fltol@f1+1
  2697     03A6  0852               	movf	?___flmul,w
  2698     03A7  00C8               	movwf	___fltol@f1
  2699     03A8  3186  26F0  3182   	fcall	___fltol
  2700     03AB  0020               	movlb	0	; select bank0
  2701     03AC  0849               	movf	?___fltol+1,w
  2702     03AD  0021               	movlb	1	; select bank1
  2703     03AE  00B4               	movwf	(main@porcent_temp+1)^(0+128)
  2704     03AF  0020               	movlb	0	; select bank0
  2705     03B0  0848               	movf	?___fltol,w
  2706     03B1  0021               	movlb	1	; select bank1
  2707     03B2  00B3               	movwf	main@porcent_temp^(0+128)
  2708     03B3                     l2561:
  2709                           
  2710                           ;main.c: 106:         porcent_lum = (gain * porcent_lum);
  2711     03B3  0835               	movf	main@porcent_lum^(0+128),w
  2712     03B4  0020               	movlb	0	; select bank0
  2713     03B5  00A0               	movwf	___xxtofl@val
  2714     03B6  0021               	movlb	1	; select bank1
  2715     03B7  0836               	movf	(main@porcent_lum+1)^(0+128),w
  2716     03B8  0020               	movlb	0	; select bank0
  2717     03B9  00A1               	movwf	___xxtofl@val+1
  2718     03BA  01A2               	clrf	___xxtofl@val+2
  2719     03BB  01A3               	clrf	___xxtofl@val+3
  2720     03BC  3000               	movlw	0
  2721     03BD  3186  2645  3182   	fcall	___xxtofl
  2722     03C0  0020               	movlb	0	; select bank0
  2723     03C1  0823               	movf	?___xxtofl+3,w
  2724     03C2  00D9               	movwf	___flmul@a+3
  2725     03C3  0822               	movf	?___xxtofl+2,w
  2726     03C4  00D8               	movwf	___flmul@a+2
  2727     03C5  0821               	movf	?___xxtofl+1,w
  2728     03C6  00D7               	movwf	___flmul@a+1
  2729     03C7  0820               	movf	?___xxtofl,w
  2730     03C8  00D6               	movwf	___flmul@a
  2731     03C9  0021               	movlb	1	; select bank1
  2732     03CA  082E               	movf	(main@gain+3)^(0+128),w
  2733     03CB  0020               	movlb	0	; select bank0
  2734     03CC  00D5               	movwf	___flmul@b+3
  2735     03CD  0021               	movlb	1	; select bank1
  2736     03CE  082D               	movf	(main@gain+2)^(0+128),w
  2737     03CF  0020               	movlb	0	; select bank0
  2738     03D0  00D4               	movwf	___flmul@b+2
  2739     03D1  0021               	movlb	1	; select bank1
  2740     03D2  082C               	movf	(main@gain+1)^(0+128),w
  2741     03D3  0020               	movlb	0	; select bank0
  2742     03D4  00D3               	movwf	___flmul@b+1
  2743     03D5  0021               	movlb	1	; select bank1
  2744     03D6  082B               	movf	main@gain^(0+128),w
  2745     03D7  0020               	movlb	0	; select bank0
  2746     03D8  00D2               	movwf	___flmul@b
  2747     03D9  3180  2030  3182   	fcall	___flmul
  2748     03DC  0020               	movlb	0	; select bank0
  2749     03DD  0855               	movf	?___flmul+3,w
  2750     03DE  00CB               	movwf	___fltol@f1+3
  2751     03DF  0854               	movf	?___flmul+2,w
  2752     03E0  00CA               	movwf	___fltol@f1+2
  2753     03E1  0853               	movf	?___flmul+1,w
  2754     03E2  00C9               	movwf	___fltol@f1+1
  2755     03E3  0852               	movf	?___flmul,w
  2756     03E4  00C8               	movwf	___fltol@f1
  2757     03E5  3186  26F0  3182   	fcall	___fltol
  2758     03E8  0020               	movlb	0	; select bank0
  2759     03E9  0849               	movf	?___fltol+1,w
  2760     03EA  0021               	movlb	1	; select bank1
  2761     03EB  00B6               	movwf	(main@porcent_lum+1)^(0+128)
  2762     03EC  0020               	movlb	0	; select bank0
  2763     03ED  0848               	movf	?___fltol,w
  2764     03EE  0021               	movlb	1	; select bank1
  2765     03EF  00B5               	movwf	main@porcent_lum^(0+128)
  2766     03F0                     l2563:
  2767                           
  2768                           ;main.c: 107:         if(EUSART_is_rx_ready()){
  2769     03F0  318E  26F7  3182   	fcall	_EUSART_is_rx_ready
  2770     03F3  3A00               	xorlw	0
  2771     03F4  1903               	skipnz
  2772     03F5  2BF7               	goto	u2651
  2773     03F6  2BF8               	goto	u2650
  2774     03F7                     u2651:
  2775     03F7  2C16               	goto	l241
  2776     03F8                     u2650:
  2777     03F8                     l2565:
  2778                           
  2779                           ;main.c: 108:             for(int i = 0; i<3 ; i++){
  2780     03F8  0021               	movlb	1	; select bank1
  2781     03F9  01B7               	clrf	main@i^(0+128)
  2782     03FA  01B8               	clrf	(main@i+1)^(0+128)
  2783     03FB                     l2571:
  2784                           
  2785                           ;main.c: 109:                 rx_buffer[i] = EUSART_Read();
  2786     03FB  0021               	movlb	1	; select bank1
  2787     03FC  0837               	movf	main@i^(0+128),w
  2788     03FD  3EBE               	addlw	(low (_rx_buffer| 0))& (0+255)
  2789     03FE  0086               	movwf	6
  2790     03FF  0187               	clrf	7
  2791     0400  318F  275A  3182   	fcall	_EUSART_Read
  2792     0403  0081               	movwf	1
  2793     0404                     l2573:
  2794                           
  2795                           ;main.c: 110:             }
  2796     0404  3001               	movlw	1
  2797     0405  0021               	movlb	1	; select bank1
  2798     0406  07B7               	addwf	main@i^(0+128),f
  2799     0407  3000               	movlw	0
  2800     0408  3DB8               	addwfc	(main@i+1)^(0+128),f
  2801     0409                     l2575:
  2802     0409  0838               	movf	(main@i+1)^(0+128),w
  2803     040A  3A80               	xorlw	128
  2804     040B  00A0               	movwf	??_main^(0+128)
  2805     040C  3080               	movlw	128
  2806     040D  0220               	subwf	??_main^(0+128),w
  2807     040E  1D03               	skipz
  2808     040F  2C12               	goto	u2665
  2809     0410  3003               	movlw	3
  2810     0411  0237               	subwf	main@i^(0+128),w
  2811     0412                     u2665:
  2812     0412  1C03               	skipc
  2813     0413  2C15               	goto	u2661
  2814     0414  2C16               	goto	u2660
  2815     0415                     u2661:
  2816     0415  2BFB               	goto	l2571
  2817     0416                     u2660:
  2818     0416                     l241:	
  2819                           ;main.c: 111:         }
  2820                           
  2821                           
  2822                           ;main.c: 112:         if(rx_buffer[0] & 0x80){
  2823     0416  0021               	movlb	1	; select bank1
  2824     0417  1FBE               	btfss	_rx_buffer^(0+128),7
  2825     0418  2C1A               	goto	u2671
  2826     0419  2C1B               	goto	u2670
  2827     041A                     u2671:
  2828     041A  2A80               	goto	l2547
  2829     041B                     u2670:
  2830     041B                     l2577:
  2831                           
  2832                           ;main.c: 113:             tx_buffer[0] = 0x80;
  2833     041B  3080               	movlw	128
  2834     041C  00B9               	movwf	_tx_buffer^(0+128)
  2835                           
  2836                           ;main.c: 114:             vTx.v = porcent_temp ;
  2837     041D  0834               	movf	(main@porcent_temp+1)^(0+128),w
  2838     041E  00C2               	movwf	(_vTx+1)^(0+128)
  2839     041F  0833               	movf	main@porcent_temp^(0+128),w
  2840     0420  00C1               	movwf	_vTx^(0+128)
  2841                           
  2842                           ;main.c: 115:             tx_buffer[1] = vTx.vL;
  2843     0421  0841               	movf	_vTx^(0+128),w
  2844     0422  00BA               	movwf	(_tx_buffer^(0+128)+1)
  2845                           
  2846                           ;main.c: 116:             tx_buffer[2] = vTx.vH;
  2847     0423  0842               	movf	(_vTx^(0+128)+1),w
  2848     0424  00BB               	movwf	(_tx_buffer^(0+128)+2)
  2849                           
  2850                           ;main.c: 117:             vTx.v = porcent_lum;
  2851     0425  0836               	movf	(main@porcent_lum+1)^(0+128),w
  2852     0426  00C2               	movwf	(_vTx+1)^(0+128)
  2853     0427  0835               	movf	main@porcent_lum^(0+128),w
  2854     0428  00C1               	movwf	_vTx^(0+128)
  2855                           
  2856                           ;main.c: 118:             tx_buffer[3] = vTx.vL;
  2857     0429  0841               	movf	_vTx^(0+128),w
  2858     042A  00BC               	movwf	(_tx_buffer^(0+128)+3)
  2859                           
  2860                           ;main.c: 119:             tx_buffer[4] = vTx.vH;
  2861     042B  0842               	movf	(_vTx^(0+128)+1),w
  2862     042C  00BD               	movwf	(_tx_buffer^(0+128)+4)
  2863     042D                     l2579:
  2864                           
  2865                           ;main.c: 120:             if(rx_buffer[2] == 0x01){
  2866     042D  0340               	decf	(_rx_buffer^(0+128)+2),w
  2867     042E  1D03               	btfss	3,2
  2868     042F  2C31               	goto	u2681
  2869     0430  2C32               	goto	u2680
  2870     0431                     u2681:
  2871     0431  2C35               	goto	l2583
  2872     0432                     u2680:
  2873     0432                     l2581:
  2874                           
  2875                           ;main.c: 121:                 activate_tx = 1;
  2876     0432  01F8               	clrf	_activate_tx
  2877     0433  0AF8               	incf	_activate_tx,f
  2878                           
  2879                           ;main.c: 122:             }else{
  2880     0434  2C36               	goto	l2585
  2881     0435                     l2583:
  2882                           
  2883                           ;main.c: 123:                 activate_tx = 0;
  2884     0435  01F8               	clrf	_activate_tx
  2885     0436                     l2585:
  2886                           
  2887                           ;main.c: 126:             if(rx_buffer[0] == 0x81){
  2888     0436  3081               	movlw	129
  2889     0437  063E               	xorwf	_rx_buffer^(0+128),w
  2890     0438  1D03               	btfss	3,2
  2891     0439  2C3B               	goto	u2691
  2892     043A  2C3C               	goto	u2690
  2893     043B                     u2691:
  2894     043B  2C53               	goto	l2591
  2895     043C                     u2690:
  2896     043C                     l2587:
  2897                           
  2898                           ;main.c: 127:                 duty_c = (rx_buffer[1] << 8) + rx_buffer[2];
  2899     043C  0840               	movf	(_rx_buffer^(0+128)+2),w
  2900     043D  00A0               	movwf	??_main^(0+128)
  2901     043E  01A1               	clrf	(??_main^(0+128)+1)
  2902     043F  083F               	movf	(_rx_buffer^(0+128)+1),w
  2903     0440  00A2               	movwf	(??_main+2)^(0+128)
  2904     0441  01A3               	clrf	((??_main+2)^(0+128)+1)
  2905     0442  0822               	movf	(??_main+2)^(0+128),w
  2906     0443  00A3               	movwf	((??_main+2)^(0+128)+1)
  2907     0444  01A2               	clrf	(??_main+2)^(0+128)
  2908     0445  0820               	movf	??_main^(0+128),w
  2909     0446  0722               	addwf	(??_main+2)^(0+128),w
  2910     0447  00A9               	movwf	main@duty_c^(0+128)
  2911     0448  0821               	movf	(??_main+1)^(0+128),w
  2912     0449  3D23               	addwfc	(??_main+3)^(0+128),w
  2913     044A  00AA               	movwf	(main@duty_c+1)^(0+128)
  2914     044B                     l2589:
  2915                           
  2916                           ;main.c: 128:                 EPWM2_LoadDutyValue(duty_c);
  2917     044B  082A               	movf	(main@duty_c+1)^(0+128),w
  2918     044C  00F5               	movwf	EPWM2_LoadDutyValue@dutyValue+1
  2919     044D  0829               	movf	main@duty_c^(0+128),w
  2920     044E  00F4               	movwf	EPWM2_LoadDutyValue@dutyValue
  2921     044F  318F  27AA  3182   	fcall	_EPWM2_LoadDutyValue
  2922                           
  2923                           ;main.c: 129:             }
  2924     0452  2A80               	goto	l2547
  2925     0453                     l2591:
  2926     0453  3082               	movlw	130
  2927     0454  063E               	xorwf	_rx_buffer^(0+128),w
  2928     0455  1D03               	btfss	3,2
  2929     0456  2C58               	goto	u2701
  2930     0457  2C59               	goto	u2700
  2931     0458                     u2701:
  2932     0458  2C98               	goto	l244
  2933     0459                     u2700:
  2934     0459                     l2593:
  2935                           
  2936                           ;main.c: 131:                 gain = (float)rx_buffer[2]/1000.0;
  2937     0459  3044               	movlw	68
  2938     045A  0020               	movlb	0	; select bank0
  2939     045B  00B1               	movwf	___fldiv@a+3
  2940     045C  307A               	movlw	122
  2941     045D  00B0               	movwf	___fldiv@a+2
  2942     045E  3000               	movlw	0
  2943     045F  00AF               	movwf	___fldiv@a+1
  2944     0460  3000               	movlw	0
  2945     0461  00AE               	movwf	___fldiv@a
  2946     0462  0021               	movlb	1	; select bank1
  2947     0463  0840               	movf	(_rx_buffer^(0+128)+2),w
  2948     0464  00A0               	movwf	??_main^(0+128)
  2949     0465  01A1               	clrf	(??_main^(0+128)+1)
  2950     0466  01A2               	clrf	(??_main^(0+128)+2)
  2951     0467  01A3               	clrf	(??_main^(0+128)+3)
  2952     0468  0823               	movf	(??_main+3)^(0+128),w
  2953     0469  0020               	movlb	0	; select bank0
  2954     046A  00A3               	movwf	___xxtofl@val+3
  2955     046B  0021               	movlb	1	; select bank1
  2956     046C  0822               	movf	(??_main+2)^(0+128),w
  2957     046D  0020               	movlb	0	; select bank0
  2958     046E  00A2               	movwf	___xxtofl@val+2
  2959     046F  0021               	movlb	1	; select bank1
  2960     0470  0821               	movf	(??_main+1)^(0+128),w
  2961     0471  0020               	movlb	0	; select bank0
  2962     0472  00A1               	movwf	___xxtofl@val+1
  2963     0473  0021               	movlb	1	; select bank1
  2964     0474  0820               	movf	??_main^(0+128),w
  2965     0475  0020               	movlb	0	; select bank0
  2966     0476  00A0               	movwf	___xxtofl@val
  2967     0477  3000               	movlw	0
  2968     0478  3186  2645  3182   	fcall	___xxtofl
  2969     047B  0020               	movlb	0	; select bank0
  2970     047C  0823               	movf	?___xxtofl+3,w
  2971     047D  00B5               	movwf	___fldiv@b+3
  2972     047E  0822               	movf	?___xxtofl+2,w
  2973     047F  00B4               	movwf	___fldiv@b+2
  2974     0480  0821               	movf	?___xxtofl+1,w
  2975     0481  00B3               	movwf	___fldiv@b+1
  2976     0482  0820               	movf	?___xxtofl,w
  2977     0483  00B2               	movwf	___fldiv@b
  2978     0484  3184  249B  3182   	fcall	___fldiv
  2979     0487  0020               	movlb	0	; select bank0
  2980     0488  0831               	movf	?___fldiv+3,w
  2981     0489  0021               	movlb	1	; select bank1
  2982     048A  00AE               	movwf	(main@gain+3)^(0+128)
  2983     048B  0020               	movlb	0	; select bank0
  2984     048C  0830               	movf	?___fldiv+2,w
  2985     048D  0021               	movlb	1	; select bank1
  2986     048E  00AD               	movwf	(main@gain+2)^(0+128)
  2987     048F  0020               	movlb	0	; select bank0
  2988     0490  082F               	movf	?___fldiv+1,w
  2989     0491  0021               	movlb	1	; select bank1
  2990     0492  00AC               	movwf	(main@gain+1)^(0+128)
  2991     0493  0020               	movlb	0	; select bank0
  2992     0494  082E               	movf	?___fldiv,w
  2993     0495  0021               	movlb	1	; select bank1
  2994     0496  00AB               	movwf	main@gain^(0+128)
  2995     0497  2A80               	goto	l2547
  2996     0498                     l244:	
  2997                           ;main.c: 133:         }
  2998                           
  2999     0498  2A80               	goto	l2547
  3000     0499  3180  2819         	ljmp	start
  3001     049B                     __end_of_main:
  3002                           
  3003                           	psect	text1
  3004     0645                     __ptext1:	
  3005 ;; *************** function ___xxtofl *****************
  3006 ;; Defined at:
  3007 ;;		line 10 in file "C:\Program Files\Microchip\xc8\v2.46\pic\sources\c99\common\xxtofl.c"
  3008 ;; Parameters:    Size  Location     Type
  3009 ;;  sign            1    wreg     unsigned char 
  3010 ;;  val             4    0[BANK0 ] long 
  3011 ;; Auto vars:     Size  Location     Type
  3012 ;;  sign            1    8[BANK0 ] unsigned char 
  3013 ;;  arg             4   10[BANK0 ] unsigned long 
  3014 ;;  exp             1    9[BANK0 ] unsigned char 
  3015 ;; Return value:  Size  Location     Type
  3016 ;;                  4    0[BANK0 ] unsigned char 
  3017 ;; Registers used:
  3018 ;;		wreg, status,2, status,0
  3019 ;; Tracked objects:
  3020 ;;		On entry : 0/0
  3021 ;;		On exit  : 0/0
  3022 ;;		Unchanged: 0/0
  3023 ;; Data sizes:     COMMON   BANK0   BANK1   BANK2   BANK3   BANK4
  3024 ;;      Params:         0       4       0       0       0       0
  3025 ;;      Locals:         0       6       0       0       0       0
  3026 ;;      Temps:          0       4       0       0       0       0
  3027 ;;      Totals:         0      14       0       0       0       0
  3028 ;;Total ram usage:       14 bytes
  3029 ;; Hardware stack levels used: 1
  3030 ;; Hardware stack levels required when called: 5
  3031 ;; This function calls:
  3032 ;;		Nothing
  3033 ;; This function is called by:
  3034 ;;		_main
  3035 ;; This function uses a non-reentrant model
  3036 ;;
  3037                           
  3038     0645                     ___xxtofl:	
  3039                           ;psect for function ___xxtofl
  3040                           
  3041                           
  3042                           ;incstack = 0
  3043                           ; Regs used in ___xxtofl: [wreg+status,2+status,0]
  3044                           ;___xxtofl@sign stored from wreg
  3045     0645  0020               	movlb	0	; select bank0
  3046     0646  00A8               	movwf	___xxtofl@sign
  3047     0647                     l2493:
  3048     0647  0828               	movf	___xxtofl@sign,w
  3049     0648  1903               	btfsc	3,2
  3050     0649  2E4B               	goto	u2511
  3051     064A  2E4C               	goto	u2510
  3052     064B                     u2511:
  3053     064B  2E60               	goto	l2499
  3054     064C                     u2510:
  3055     064C                     l2495:
  3056     064C  1FA3               	btfss	___xxtofl@val+3,7
  3057     064D  2E4F               	goto	u2521
  3058     064E  2E50               	goto	u2520
  3059     064F                     u2521:
  3060     064F  2E60               	goto	l2499
  3061     0650                     u2520:
  3062     0650                     l2497:
  3063     0650  0920               	comf	___xxtofl@val,w
  3064     0651  00AA               	movwf	___xxtofl@arg
  3065     0652  0921               	comf	___xxtofl@val+1,w
  3066     0653  00AB               	movwf	___xxtofl@arg+1
  3067     0654  0922               	comf	___xxtofl@val+2,w
  3068     0655  00AC               	movwf	___xxtofl@arg+2
  3069     0656  0923               	comf	___xxtofl@val+3,w
  3070     0657  00AD               	movwf	___xxtofl@arg+3
  3071     0658  0AAA               	incf	___xxtofl@arg,f
  3072     0659  1903               	skipnz
  3073     065A  0AAB               	incf	___xxtofl@arg+1,f
  3074     065B  1903               	skipnz
  3075     065C  0AAC               	incf	___xxtofl@arg+2,f
  3076     065D  1903               	skipnz
  3077     065E  0AAD               	incf	___xxtofl@arg+3,f
  3078     065F  2E68               	goto	l980
  3079     0660                     l2499:
  3080     0660  0823               	movf	___xxtofl@val+3,w
  3081     0661  00AD               	movwf	___xxtofl@arg+3
  3082     0662  0822               	movf	___xxtofl@val+2,w
  3083     0663  00AC               	movwf	___xxtofl@arg+2
  3084     0664  0821               	movf	___xxtofl@val+1,w
  3085     0665  00AB               	movwf	___xxtofl@arg+1
  3086     0666  0820               	movf	___xxtofl@val,w
  3087     0667  00AA               	movwf	___xxtofl@arg
  3088     0668                     l980:
  3089     0668  0823               	movf	___xxtofl@val+3,w
  3090     0669  0422               	iorwf	___xxtofl@val+2,w
  3091     066A  0421               	iorwf	___xxtofl@val+1,w
  3092     066B  0420               	iorwf	___xxtofl@val,w
  3093     066C  1D03               	skipz
  3094     066D  2E6F               	goto	u2531
  3095     066E  2E70               	goto	u2530
  3096     066F                     u2531:
  3097     066F  2E79               	goto	l2505
  3098     0670                     u2530:
  3099     0670                     l2501:
  3100     0670  3000               	movlw	0
  3101     0671  00A3               	movwf	?___xxtofl+3
  3102     0672  3000               	movlw	0
  3103     0673  00A2               	movwf	?___xxtofl+2
  3104     0674  3000               	movlw	0
  3105     0675  00A1               	movwf	?___xxtofl+1
  3106     0676  3000               	movlw	0
  3107     0677  00A0               	movwf	?___xxtofl
  3108     0678  2EEF               	goto	l982
  3109     0679                     l2505:
  3110     0679  3096               	movlw	150
  3111     067A  00A9               	movwf	___xxtofl@exp
  3112     067B  2E87               	goto	l2509
  3113     067C                     l2507:
  3114     067C  3001               	movlw	1
  3115     067D  00A4               	movwf	??___xxtofl
  3116     067E  0824               	movf	??___xxtofl,w
  3117     067F  07A9               	addwf	___xxtofl@exp,f
  3118     0680  3001               	movlw	1
  3119     0681                     u2545:
  3120     0681  36AD               	lsrf	___xxtofl@arg+3,f
  3121     0682  0CAC               	rrf	___xxtofl@arg+2,f
  3122     0683  0CAB               	rrf	___xxtofl@arg+1,f
  3123     0684  0CAA               	rrf	___xxtofl@arg,f
  3124     0685  0B89               	decfsz	9,f
  3125     0686  2E81               	goto	u2545
  3126     0687                     l2509:
  3127     0687  30FE               	movlw	254
  3128     0688  052D               	andwf	___xxtofl@arg+3,w
  3129     0689  1D03               	btfss	3,2
  3130     068A  2E8C               	goto	u2551
  3131     068B  2E8D               	goto	u2550
  3132     068C                     u2551:
  3133     068C  2E7C               	goto	l2507
  3134     068D                     u2550:
  3135     068D  2EA1               	goto	l986
  3136     068E                     l2511:
  3137     068E  3001               	movlw	1
  3138     068F  00A4               	movwf	??___xxtofl
  3139     0690  0824               	movf	??___xxtofl,w
  3140     0691  07A9               	addwf	___xxtofl@exp,f
  3141     0692                     l2513:
  3142     0692  3001               	movlw	1
  3143     0693  07AA               	addwf	___xxtofl@arg,f
  3144     0694  3000               	movlw	0
  3145     0695  3DAB               	addwfc	___xxtofl@arg+1,f
  3146     0696  3000               	movlw	0
  3147     0697  3DAC               	addwfc	___xxtofl@arg+2,f
  3148     0698  3000               	movlw	0
  3149     0699  3DAD               	addwfc	___xxtofl@arg+3,f
  3150     069A                     l2515:
  3151     069A  3001               	movlw	1
  3152     069B                     u2565:
  3153     069B  36AD               	lsrf	___xxtofl@arg+3,f
  3154     069C  0CAC               	rrf	___xxtofl@arg+2,f
  3155     069D  0CAB               	rrf	___xxtofl@arg+1,f
  3156     069E  0CAA               	rrf	___xxtofl@arg,f
  3157     069F  0B89               	decfsz	9,f
  3158     06A0  2E9B               	goto	u2565
  3159     06A1                     l986:
  3160     06A1  30FF               	movlw	255
  3161     06A2  052D               	andwf	___xxtofl@arg+3,w
  3162     06A3  1D03               	btfss	3,2
  3163     06A4  2EA6               	goto	u2571
  3164     06A5  2EA7               	goto	u2570
  3165     06A6                     u2571:
  3166     06A6  2E8E               	goto	l2511
  3167     06A7                     u2570:
  3168     06A7  2EB1               	goto	l2519
  3169     06A8                     l2517:
  3170     06A8  3001               	movlw	1
  3171     06A9  02A9               	subwf	___xxtofl@exp,f
  3172     06AA  3001               	movlw	1
  3173     06AB                     u2585:
  3174     06AB  35AA               	lslf	___xxtofl@arg,f
  3175     06AC  0DAB               	rlf	___xxtofl@arg+1,f
  3176     06AD  0DAC               	rlf	___xxtofl@arg+2,f
  3177     06AE  0DAD               	rlf	___xxtofl@arg+3,f
  3178     06AF  0B89               	decfsz	9,f
  3179     06B0  2EAB               	goto	u2585
  3180     06B1                     l2519:
  3181     06B1  1BAC               	btfsc	___xxtofl@arg+2,7
  3182     06B2  2EB4               	goto	u2591
  3183     06B3  2EB5               	goto	u2590
  3184     06B4                     u2591:
  3185     06B4  2EBB               	goto	l993
  3186     06B5                     u2590:
  3187     06B5                     l2521:
  3188     06B5  3002               	movlw	2
  3189     06B6  0229               	subwf	___xxtofl@exp,w
  3190     06B7  1803               	skipnc
  3191     06B8  2EBA               	goto	u2601
  3192     06B9  2EBB               	goto	u2600
  3193     06BA                     u2601:
  3194     06BA  2EA8               	goto	l2517
  3195     06BB                     u2600:
  3196     06BB                     l993:
  3197     06BB  1829               	btfsc	___xxtofl@exp,0
  3198     06BC  2EBE               	goto	u2611
  3199     06BD  2EBF               	goto	u2610
  3200     06BE                     u2611:
  3201     06BE  2EC7               	goto	l994
  3202     06BF                     u2610:
  3203     06BF                     l2523:
  3204     06BF  30FF               	movlw	255
  3205     06C0  05AA               	andwf	___xxtofl@arg,f
  3206     06C1  30FF               	movlw	255
  3207     06C2  05AB               	andwf	___xxtofl@arg+1,f
  3208     06C3  307F               	movlw	127
  3209     06C4  05AC               	andwf	___xxtofl@arg+2,f
  3210     06C5  30FF               	movlw	255
  3211     06C6  05AD               	andwf	___xxtofl@arg+3,f
  3212     06C7                     l994:
  3213     06C7  1003               	clrc
  3214     06C8  0CA9               	rrf	___xxtofl@exp,f
  3215     06C9                     l2525:
  3216     06C9  0829               	movf	___xxtofl@exp,w
  3217     06CA  00A4               	movwf	??___xxtofl
  3218     06CB  01A5               	clrf	??___xxtofl+1
  3219     06CC  01A6               	clrf	??___xxtofl+2
  3220     06CD  01A7               	clrf	??___xxtofl+3
  3221     06CE  3018               	movlw	24
  3222     06CF                     u2625:
  3223     06CF  35A4               	lslf	??___xxtofl,f
  3224     06D0  0DA5               	rlf	??___xxtofl+1,f
  3225     06D1  0DA6               	rlf	??___xxtofl+2,f
  3226     06D2  0DA7               	rlf	??___xxtofl+3,f
  3227     06D3                     u2620:
  3228     06D3  0B89               	decfsz	9,f
  3229     06D4  2ECF               	goto	u2625
  3230     06D5  0824               	movf	??___xxtofl,w
  3231     06D6  04AA               	iorwf	___xxtofl@arg,f
  3232     06D7  0825               	movf	??___xxtofl+1,w
  3233     06D8  04AB               	iorwf	___xxtofl@arg+1,f
  3234     06D9  0826               	movf	??___xxtofl+2,w
  3235     06DA  04AC               	iorwf	___xxtofl@arg+2,f
  3236     06DB  0827               	movf	??___xxtofl+3,w
  3237     06DC  04AD               	iorwf	___xxtofl@arg+3,f
  3238     06DD                     l2527:
  3239     06DD  0828               	movf	___xxtofl@sign,w
  3240     06DE  1903               	btfsc	3,2
  3241     06DF  2EE1               	goto	u2631
  3242     06E0  2EE2               	goto	u2630
  3243     06E1                     u2631:
  3244     06E1  2EE7               	goto	l2533
  3245     06E2                     u2630:
  3246     06E2                     l2529:
  3247     06E2  1FA3               	btfss	___xxtofl@val+3,7
  3248     06E3  2EE5               	goto	u2641
  3249     06E4  2EE6               	goto	u2640
  3250     06E5                     u2641:
  3251     06E5  2EE7               	goto	l2533
  3252     06E6                     u2640:
  3253     06E6                     l2531:
  3254     06E6  17AD               	bsf	___xxtofl@arg+3,7
  3255     06E7                     l2533:
  3256     06E7  082D               	movf	___xxtofl@arg+3,w
  3257     06E8  00A3               	movwf	?___xxtofl+3
  3258     06E9  082C               	movf	___xxtofl@arg+2,w
  3259     06EA  00A2               	movwf	?___xxtofl+2
  3260     06EB  082B               	movf	___xxtofl@arg+1,w
  3261     06EC  00A1               	movwf	?___xxtofl+1
  3262     06ED  082A               	movf	___xxtofl@arg,w
  3263     06EE  00A0               	movwf	?___xxtofl
  3264     06EF                     l982:
  3265     06EF  0008               	return
  3266     06F0                     __end_of___xxtofl:
  3267                           
  3268                           	psect	text2
  3269     06F0                     __ptext2:	
  3270 ;; *************** function ___fltol *****************
  3271 ;; Defined at:
  3272 ;;		line 43 in file "C:\Program Files\Microchip\xc8\v2.46\pic\sources\c99\common\fltol.c"
  3273 ;; Parameters:    Size  Location     Type
  3274 ;;  f1              4   40[BANK0 ] unsigned char 
  3275 ;; Auto vars:     Size  Location     Type
  3276 ;;  exp1            1   49[BANK0 ] unsigned char 
  3277 ;;  sign1           1   48[BANK0 ] unsigned char 
  3278 ;; Return value:  Size  Location     Type
  3279 ;;                  4   40[BANK0 ] long 
  3280 ;; Registers used:
  3281 ;;		wreg, status,2, status,0
  3282 ;; Tracked objects:
  3283 ;;		On entry : 0/0
  3284 ;;		On exit  : 0/0
  3285 ;;		Unchanged: 0/0
  3286 ;; Data sizes:     COMMON   BANK0   BANK1   BANK2   BANK3   BANK4
  3287 ;;      Params:         0       4       0       0       0       0
  3288 ;;      Locals:         0       2       0       0       0       0
  3289 ;;      Temps:          0       4       0       0       0       0
  3290 ;;      Totals:         0      10       0       0       0       0
  3291 ;;Total ram usage:       10 bytes
  3292 ;; Hardware stack levels used: 1
  3293 ;; Hardware stack levels required when called: 5
  3294 ;; This function calls:
  3295 ;;		Nothing
  3296 ;; This function is called by:
  3297 ;;		_main
  3298 ;; This function uses a non-reentrant model
  3299 ;;
  3300                           
  3301     06F0                     ___fltol:	
  3302                           ;psect for function ___fltol
  3303                           
  3304     06F0                     l2317:	
  3305                           ;incstack = 0
  3306                           ; Regs used in ___fltol: [wreg+status,2+status,0]
  3307                           
  3308     06F0  1003               	clrc
  3309     06F1  0020               	movlb	0	; select bank0
  3310     06F2  0D4A               	rlf	___fltol@f1+2,w
  3311     06F3  0D4B               	rlf	___fltol@f1+3,w
  3312     06F4  00D1               	movwf	___fltol@exp1
  3313     06F5  0851               	movf	___fltol@exp1,w
  3314     06F6  1D03               	btfss	3,2
  3315     06F7  2EF9               	goto	u2151
  3316     06F8  2EFA               	goto	u2150
  3317     06F9                     u2151:
  3318     06F9  2F03               	goto	l2323
  3319     06FA                     u2150:
  3320     06FA                     l2319:
  3321     06FA  3000               	movlw	0
  3322     06FB  00CB               	movwf	?___fltol+3
  3323     06FC  3000               	movlw	0
  3324     06FD  00CA               	movwf	?___fltol+2
  3325     06FE  3000               	movlw	0
  3326     06FF  00C9               	movwf	?___fltol+1
  3327     0700  3000               	movlw	0
  3328     0701  00C8               	movwf	?___fltol
  3329     0702  2F60               	goto	l733
  3330     0703                     l2323:
  3331     0703  0848               	movf	___fltol@f1,w
  3332     0704  00CC               	movwf	??___fltol
  3333     0705  0849               	movf	___fltol@f1+1,w
  3334     0706  00CD               	movwf	??___fltol+1
  3335     0707  084A               	movf	___fltol@f1+2,w
  3336     0708  00CE               	movwf	??___fltol+2
  3337     0709  084B               	movf	___fltol@f1+3,w
  3338     070A  00CF               	movwf	??___fltol+3
  3339     070B  301F               	movlw	31
  3340     070C                     u2165:
  3341     070C  36CF               	lsrf	??___fltol+3,f
  3342     070D  0CCE               	rrf	??___fltol+2,f
  3343     070E  0CCD               	rrf	??___fltol+1,f
  3344     070F  0CCC               	rrf	??___fltol,f
  3345     0710                     u2160:
  3346     0710  0B89               	decfsz	9,f
  3347     0711  2F0C               	goto	u2165
  3348     0712  084C               	movf	??___fltol,w
  3349     0713  00D0               	movwf	___fltol@sign1
  3350     0714                     l2325:
  3351     0714  17CA               	bsf	___fltol@f1+2,7
  3352     0715                     l2327:
  3353     0715  30FF               	movlw	255
  3354     0716  05C8               	andwf	___fltol@f1,f
  3355     0717  30FF               	movlw	255
  3356     0718  05C9               	andwf	___fltol@f1+1,f
  3357     0719  30FF               	movlw	255
  3358     071A  05CA               	andwf	___fltol@f1+2,f
  3359     071B  3000               	movlw	0
  3360     071C  05CB               	andwf	___fltol@f1+3,f
  3361     071D                     l2329:
  3362     071D  3096               	movlw	150
  3363     071E  02D1               	subwf	___fltol@exp1,f
  3364     071F                     l2331:
  3365     071F  1FD1               	btfss	___fltol@exp1,7
  3366     0720  2F22               	goto	u2171
  3367     0721  2F23               	goto	u2170
  3368     0722                     u2171:
  3369     0722  2F3B               	goto	l2341
  3370     0723                     u2170:
  3371     0723                     l2333:
  3372     0723  0851               	movf	___fltol@exp1,w
  3373     0724  3A80               	xorlw	128
  3374     0725  3E97               	addlw	151
  3375     0726  1803               	skipnc
  3376     0727  2F29               	goto	u2181
  3377     0728  2F2A               	goto	u2180
  3378     0729                     u2181:
  3379     0729  2F2B               	goto	l2339
  3380     072A                     u2180:
  3381     072A  2EFA               	goto	l2319
  3382     072B                     l2339:
  3383     072B  3001               	movlw	1
  3384     072C                     u2195:
  3385     072C  36CB               	lsrf	___fltol@f1+3,f
  3386     072D  0CCA               	rrf	___fltol@f1+2,f
  3387     072E  0CC9               	rrf	___fltol@f1+1,f
  3388     072F  0CC8               	rrf	___fltol@f1,f
  3389     0730  0B89               	decfsz	9,f
  3390     0731  2F2C               	goto	u2195
  3391     0732  3001               	movlw	1
  3392     0733  00CC               	movwf	??___fltol
  3393     0734  084C               	movf	??___fltol,w
  3394     0735  07D1               	addwf	___fltol@exp1,f
  3395     0736  1D03               	btfss	3,2
  3396     0737  2F39               	goto	u2201
  3397     0738  2F3A               	goto	u2200
  3398     0739                     u2201:
  3399     0739  2F2B               	goto	l2339
  3400     073A                     u2200:
  3401     073A  2F50               	goto	l2349
  3402     073B                     l2341:
  3403     073B  3020               	movlw	32
  3404     073C  0251               	subwf	___fltol@exp1,w
  3405     073D  1C03               	skipc
  3406     073E  2F40               	goto	u2211
  3407     073F  2F41               	goto	u2210
  3408     0740                     u2211:
  3409     0740  2F4B               	goto	l740
  3410     0741                     u2210:
  3411     0741  2EFA               	goto	l2319
  3412     0742                     l2347:
  3413     0742  3001               	movlw	1
  3414     0743                     u2225:
  3415     0743  35C8               	lslf	___fltol@f1,f
  3416     0744  0DC9               	rlf	___fltol@f1+1,f
  3417     0745  0DCA               	rlf	___fltol@f1+2,f
  3418     0746  0DCB               	rlf	___fltol@f1+3,f
  3419     0747  0B89               	decfsz	9,f
  3420     0748  2F43               	goto	u2225
  3421     0749  3001               	movlw	1
  3422     074A  02D1               	subwf	___fltol@exp1,f
  3423     074B                     l740:
  3424     074B  0851               	movf	___fltol@exp1,w
  3425     074C  1D03               	btfss	3,2
  3426     074D  2F4F               	goto	u2231
  3427     074E  2F50               	goto	u2230
  3428     074F                     u2231:
  3429     074F  2F42               	goto	l2347
  3430     0750                     u2230:
  3431     0750                     l2349:
  3432     0750  0850               	movf	___fltol@sign1,w
  3433     0751  1903               	btfsc	3,2
  3434     0752  2F54               	goto	u2241
  3435     0753  2F55               	goto	u2240
  3436     0754                     u2241:
  3437     0754  2F60               	goto	l743
  3438     0755                     u2240:
  3439     0755                     l2351:
  3440     0755  09C8               	comf	___fltol@f1,f
  3441     0756  09C9               	comf	___fltol@f1+1,f
  3442     0757  09CA               	comf	___fltol@f1+2,f
  3443     0758  09CB               	comf	___fltol@f1+3,f
  3444     0759  0AC8               	incf	___fltol@f1,f
  3445     075A  1903               	skipnz
  3446     075B  0AC9               	incf	___fltol@f1+1,f
  3447     075C  1903               	skipnz
  3448     075D  0ACA               	incf	___fltol@f1+2,f
  3449     075E  1903               	skipnz
  3450     075F  0ACB               	incf	___fltol@f1+3,f
  3451     0760                     l743:
  3452     0760                     l733:
  3453     0760  0008               	return
  3454     0761                     __end_of___fltol:
  3455                           
  3456                           	psect	text3
  3457     0030                     __ptext3:	
  3458 ;; *************** function ___flmul *****************
  3459 ;; Defined at:
  3460 ;;		line 8 in file "C:\Program Files\Microchip\xc8\v2.46\pic\sources\c99\common\sprcmul.c"
  3461 ;; Parameters:    Size  Location     Type
  3462 ;;  b               4   50[BANK0 ] long 
  3463 ;;  a               4   54[BANK0 ] long 
  3464 ;; Auto vars:     Size  Location     Type
  3465 ;;  prod            4   70[BANK0 ] struct .
  3466 ;;  grs             4   65[BANK0 ] unsigned long 
  3467 ;;  temp            2   74[BANK0 ] struct .
  3468 ;;  bexp            1   69[BANK0 ] unsigned char 
  3469 ;;  aexp            1   64[BANK0 ] unsigned char 
  3470 ;;  sign            1   63[BANK0 ] unsigned char 
  3471 ;; Return value:  Size  Location     Type
  3472 ;;                  4   50[BANK0 ] unsigned char 
  3473 ;; Registers used:
  3474 ;;		wreg, status,2, status,0, pclath, cstack
  3475 ;; Tracked objects:
  3476 ;;		On entry : 0/0
  3477 ;;		On exit  : 0/0
  3478 ;;		Unchanged: 0/0
  3479 ;; Data sizes:     COMMON   BANK0   BANK1   BANK2   BANK3   BANK4
  3480 ;;      Params:         0       8       0       0       0       0
  3481 ;;      Locals:         0      13       0       0       0       0
  3482 ;;      Temps:          0       5       0       0       0       0
  3483 ;;      Totals:         0      26       0       0       0       0
  3484 ;;Total ram usage:       26 bytes
  3485 ;; Hardware stack levels used: 1
  3486 ;; Hardware stack levels required when called: 6
  3487 ;; This function calls:
  3488 ;;		__Umul8_16
  3489 ;; This function is called by:
  3490 ;;		_main
  3491 ;; This function uses a non-reentrant model
  3492 ;;
  3493                           
  3494     0030                     ___flmul:	
  3495                           ;psect for function ___flmul
  3496                           
  3497     0030                     l2353:	
  3498                           ;incstack = 0
  3499                           ; Regs used in ___flmul: [wreg+status,2+status,0+pclath+cstack]
  3500                           
  3501     0030  0020               	movlb	0	; select bank0
  3502     0031  0855               	movf	___flmul@b+3,w
  3503     0032  3980               	andlw	128
  3504     0033  00DF               	movwf	___flmul@sign
  3505     0034                     l2355:
  3506     0034  3555               	lslf	___flmul@b+3,w
  3507     0035  00E5               	movwf	___flmul@bexp
  3508     0036                     l2357:
  3509     0036  1FD4               	btfss	___flmul@b+2,7
  3510     0037  2839               	goto	u2251
  3511     0038  283A               	goto	u2250
  3512     0039                     u2251:
  3513     0039  283B               	goto	l2361
  3514     003A                     u2250:
  3515     003A                     l2359:
  3516     003A  1465               	bsf	___flmul@bexp,0
  3517     003B                     l2361:
  3518     003B  0865               	movf	___flmul@bexp,w
  3519     003C  1903               	btfsc	3,2
  3520     003D  283F               	goto	u2261
  3521     003E  2840               	goto	u2260
  3522     003F                     u2261:
  3523     003F  284F               	goto	l2369
  3524     0040                     u2260:
  3525     0040                     l2363:
  3526     0040  0A65               	incf	___flmul@bexp,w
  3527     0041  1D03               	btfss	3,2
  3528     0042  2844               	goto	u2271
  3529     0043  2845               	goto	u2270
  3530     0044                     u2271:
  3531     0044  284D               	goto	l2367
  3532     0045                     u2270:
  3533     0045                     l2365:
  3534     0045  3000               	movlw	0
  3535     0046  00D5               	movwf	___flmul@b+3
  3536     0047  3000               	movlw	0
  3537     0048  00D4               	movwf	___flmul@b+2
  3538     0049  3000               	movlw	0
  3539     004A  00D3               	movwf	___flmul@b+1
  3540     004B  3000               	movlw	0
  3541     004C  00D2               	movwf	___flmul@b
  3542     004D                     l2367:
  3543     004D  17D4               	bsf	___flmul@b+2,7
  3544     004E  2857               	goto	l2371
  3545     004F                     l2369:
  3546     004F  3000               	movlw	0
  3547     0050  00D5               	movwf	___flmul@b+3
  3548     0051  3000               	movlw	0
  3549     0052  00D4               	movwf	___flmul@b+2
  3550     0053  3000               	movlw	0
  3551     0054  00D3               	movwf	___flmul@b+1
  3552     0055  3000               	movlw	0
  3553     0056  00D2               	movwf	___flmul@b
  3554     0057                     l2371:
  3555     0057  0859               	movf	___flmul@a+3,w
  3556     0058  3980               	andlw	128
  3557     0059  00DA               	movwf	??___flmul
  3558     005A  085A               	movf	??___flmul,w
  3559     005B  06DF               	xorwf	___flmul@sign,f
  3560     005C                     l2373:
  3561     005C  3559               	lslf	___flmul@a+3,w
  3562     005D  00E0               	movwf	___flmul@aexp
  3563     005E                     l2375:
  3564     005E  1FD8               	btfss	___flmul@a+2,7
  3565     005F  2861               	goto	u2281
  3566     0060  2862               	goto	u2280
  3567     0061                     u2281:
  3568     0061  2863               	goto	l2379
  3569     0062                     u2280:
  3570     0062                     l2377:
  3571     0062  1460               	bsf	___flmul@aexp,0
  3572     0063                     l2379:
  3573     0063  0860               	movf	___flmul@aexp,w
  3574     0064  1903               	btfsc	3,2
  3575     0065  2867               	goto	u2291
  3576     0066  2868               	goto	u2290
  3577     0067                     u2291:
  3578     0067  2877               	goto	l2387
  3579     0068                     u2290:
  3580     0068                     l2381:
  3581     0068  0A60               	incf	___flmul@aexp,w
  3582     0069  1D03               	btfss	3,2
  3583     006A  286C               	goto	u2301
  3584     006B  286D               	goto	u2300
  3585     006C                     u2301:
  3586     006C  2875               	goto	l2385
  3587     006D                     u2300:
  3588     006D                     l2383:
  3589     006D  3000               	movlw	0
  3590     006E  00D9               	movwf	___flmul@a+3
  3591     006F  3000               	movlw	0
  3592     0070  00D8               	movwf	___flmul@a+2
  3593     0071  3000               	movlw	0
  3594     0072  00D7               	movwf	___flmul@a+1
  3595     0073  3000               	movlw	0
  3596     0074  00D6               	movwf	___flmul@a
  3597     0075                     l2385:
  3598     0075  17D8               	bsf	___flmul@a+2,7
  3599     0076  287F               	goto	l2389
  3600     0077                     l2387:
  3601     0077  3000               	movlw	0
  3602     0078  00D9               	movwf	___flmul@a+3
  3603     0079  3000               	movlw	0
  3604     007A  00D8               	movwf	___flmul@a+2
  3605     007B  3000               	movlw	0
  3606     007C  00D7               	movwf	___flmul@a+1
  3607     007D  3000               	movlw	0
  3608     007E  00D6               	movwf	___flmul@a
  3609     007F                     l2389:
  3610     007F  0860               	movf	___flmul@aexp,w
  3611     0080  1903               	btfsc	3,2
  3612     0081  2883               	goto	u2311
  3613     0082  2884               	goto	u2310
  3614     0083                     u2311:
  3615     0083  2889               	goto	l2393
  3616     0084                     u2310:
  3617     0084                     l2391:
  3618     0084  0865               	movf	___flmul@bexp,w
  3619     0085  1D03               	btfss	3,2
  3620     0086  2888               	goto	u2321
  3621     0087  2889               	goto	u2320
  3622     0088                     u2321:
  3623     0088  2892               	goto	l2397
  3624     0089                     u2320:
  3625     0089                     l2393:
  3626     0089  3000               	movlw	0
  3627     008A  00D5               	movwf	?___flmul+3
  3628     008B  3000               	movlw	0
  3629     008C  00D4               	movwf	?___flmul+2
  3630     008D  3000               	movlw	0
  3631     008E  00D3               	movwf	?___flmul+1
  3632     008F  3000               	movlw	0
  3633     0090  00D2               	movwf	?___flmul
  3634     0091  2A6A               	goto	l936
  3635     0092                     l2397:
  3636     0092  0852               	movf	___flmul@b,w
  3637     0093  00F4               	movwf	__Umul8_16@multiplicand
  3638     0094  0858               	movf	___flmul@a+2,w
  3639     0095  3187  279A  3180   	fcall	__Umul8_16
  3640     0098  0875               	movf	?__Umul8_16+1,w
  3641     0099  0020               	movlb	0	; select bank0
  3642     009A  00EB               	movwf	___flmul@temp+1
  3643     009B  0874               	movf	?__Umul8_16,w
  3644     009C  00EA               	movwf	___flmul@temp
  3645     009D                     l2399:
  3646     009D  086A               	movf	___flmul@temp,w
  3647     009E  00DA               	movwf	??___flmul
  3648     009F  01DB               	clrf	??___flmul+1
  3649     00A0  01DC               	clrf	??___flmul+2
  3650     00A1  01DD               	clrf	??___flmul+3
  3651     00A2  085D               	movf	??___flmul+3,w
  3652     00A3  00E4               	movwf	___flmul@grs+3
  3653     00A4  085C               	movf	??___flmul+2,w
  3654     00A5  00E3               	movwf	___flmul@grs+2
  3655     00A6  085B               	movf	??___flmul+1,w
  3656     00A7  00E2               	movwf	___flmul@grs+1
  3657     00A8  085A               	movf	??___flmul,w
  3658     00A9  00E1               	movwf	___flmul@grs
  3659     00AA                     l2401:
  3660     00AA  086B               	movf	___flmul@temp+1,w
  3661     00AB  00DA               	movwf	??___flmul
  3662     00AC  01DB               	clrf	??___flmul+1
  3663     00AD  01DC               	clrf	??___flmul+2
  3664     00AE  01DD               	clrf	??___flmul+3
  3665     00AF  085D               	movf	??___flmul+3,w
  3666     00B0  00E9               	movwf	___flmul@prod+3
  3667     00B1  085C               	movf	??___flmul+2,w
  3668     00B2  00E8               	movwf	___flmul@prod+2
  3669     00B3  085B               	movf	??___flmul+1,w
  3670     00B4  00E7               	movwf	___flmul@prod+1
  3671     00B5  085A               	movf	??___flmul,w
  3672     00B6  00E6               	movwf	___flmul@prod
  3673     00B7  0853               	movf	___flmul@b+1,w
  3674     00B8  00F4               	movwf	__Umul8_16@multiplicand
  3675     00B9  0857               	movf	___flmul@a+1,w
  3676     00BA  3187  279A  3180   	fcall	__Umul8_16
  3677     00BD  0875               	movf	?__Umul8_16+1,w
  3678     00BE  0020               	movlb	0	; select bank0
  3679     00BF  00EB               	movwf	___flmul@temp+1
  3680     00C0  0874               	movf	?__Umul8_16,w
  3681     00C1  00EA               	movwf	___flmul@temp
  3682     00C2                     l2403:
  3683     00C2  086A               	movf	___flmul@temp,w
  3684     00C3  00DA               	movwf	??___flmul
  3685     00C4  01DB               	clrf	??___flmul+1
  3686     00C5  01DC               	clrf	??___flmul+2
  3687     00C6  01DD               	clrf	??___flmul+3
  3688     00C7  085A               	movf	??___flmul,w
  3689     00C8  07E1               	addwf	___flmul@grs,f
  3690     00C9  085B               	movf	??___flmul+1,w
  3691     00CA  3DE2               	addwfc	___flmul@grs+1,f
  3692     00CB  085C               	movf	??___flmul+2,w
  3693     00CC  3DE3               	addwfc	___flmul@grs+2,f
  3694     00CD  085D               	movf	??___flmul+3,w
  3695     00CE  3DE4               	addwfc	___flmul@grs+3,f
  3696     00CF                     l2405:
  3697     00CF  086B               	movf	___flmul@temp+1,w
  3698     00D0  00DA               	movwf	??___flmul
  3699     00D1  01DB               	clrf	??___flmul+1
  3700     00D2  01DC               	clrf	??___flmul+2
  3701     00D3  01DD               	clrf	??___flmul+3
  3702     00D4  085A               	movf	??___flmul,w
  3703     00D5  07E6               	addwf	___flmul@prod,f
  3704     00D6  085B               	movf	??___flmul+1,w
  3705     00D7  3DE7               	addwfc	___flmul@prod+1,f
  3706     00D8  085C               	movf	??___flmul+2,w
  3707     00D9  3DE8               	addwfc	___flmul@prod+2,f
  3708     00DA  085D               	movf	??___flmul+3,w
  3709     00DB  3DE9               	addwfc	___flmul@prod+3,f
  3710     00DC  0854               	movf	___flmul@b+2,w
  3711     00DD  00F4               	movwf	__Umul8_16@multiplicand
  3712     00DE  0856               	movf	___flmul@a,w
  3713     00DF  3187  279A  3180   	fcall	__Umul8_16
  3714     00E2  0875               	movf	?__Umul8_16+1,w
  3715     00E3  0020               	movlb	0	; select bank0
  3716     00E4  00EB               	movwf	___flmul@temp+1
  3717     00E5  0874               	movf	?__Umul8_16,w
  3718     00E6  00EA               	movwf	___flmul@temp
  3719     00E7                     l2407:
  3720     00E7  086A               	movf	___flmul@temp,w
  3721     00E8  00DA               	movwf	??___flmul
  3722     00E9  01DB               	clrf	??___flmul+1
  3723     00EA  01DC               	clrf	??___flmul+2
  3724     00EB  01DD               	clrf	??___flmul+3
  3725     00EC  085A               	movf	??___flmul,w
  3726     00ED  07E1               	addwf	___flmul@grs,f
  3727     00EE  085B               	movf	??___flmul+1,w
  3728     00EF  3DE2               	addwfc	___flmul@grs+1,f
  3729     00F0  085C               	movf	??___flmul+2,w
  3730     00F1  3DE3               	addwfc	___flmul@grs+2,f
  3731     00F2  085D               	movf	??___flmul+3,w
  3732     00F3  3DE4               	addwfc	___flmul@grs+3,f
  3733     00F4                     l2409:
  3734     00F4  086B               	movf	___flmul@temp+1,w
  3735     00F5  00DA               	movwf	??___flmul
  3736     00F6  01DB               	clrf	??___flmul+1
  3737     00F7  01DC               	clrf	??___flmul+2
  3738     00F8  01DD               	clrf	??___flmul+3
  3739     00F9  085A               	movf	??___flmul,w
  3740     00FA  07E6               	addwf	___flmul@prod,f
  3741     00FB  085B               	movf	??___flmul+1,w
  3742     00FC  3DE7               	addwfc	___flmul@prod+1,f
  3743     00FD  085C               	movf	??___flmul+2,w
  3744     00FE  3DE8               	addwfc	___flmul@prod+2,f
  3745     00FF  085D               	movf	??___flmul+3,w
  3746     0100  3DE9               	addwfc	___flmul@prod+3,f
  3747     0101                     l2411:
  3748     0101  3008               	movlw	8
  3749     0102                     u2335:
  3750     0102  35E1               	lslf	___flmul@grs,f
  3751     0103  0DE2               	rlf	___flmul@grs+1,f
  3752     0104  0DE3               	rlf	___flmul@grs+2,f
  3753     0105  0DE4               	rlf	___flmul@grs+3,f
  3754     0106  0B89               	decfsz	9,f
  3755     0107  2902               	goto	u2335
  3756     0108                     l2413:
  3757     0108  0853               	movf	___flmul@b+1,w
  3758     0109  00F4               	movwf	__Umul8_16@multiplicand
  3759     010A  0856               	movf	___flmul@a,w
  3760     010B  3187  279A  3180   	fcall	__Umul8_16
  3761     010E  0875               	movf	?__Umul8_16+1,w
  3762     010F  0020               	movlb	0	; select bank0
  3763     0110  00EB               	movwf	___flmul@temp+1
  3764     0111  0874               	movf	?__Umul8_16,w
  3765     0112  00EA               	movwf	___flmul@temp
  3766     0113                     l2415:
  3767     0113  086A               	movf	___flmul@temp,w
  3768     0114  07E1               	addwf	___flmul@grs,f
  3769     0115  086B               	movf	___flmul@temp+1,w
  3770     0116  3DE2               	addwfc	___flmul@grs+1,f
  3771     0117  3000               	movlw	0
  3772     0118  3DE3               	addwfc	___flmul@grs+2,f
  3773     0119  3DE4               	addwfc	___flmul@grs+3,f
  3774     011A                     l2417:
  3775     011A  0852               	movf	___flmul@b,w
  3776     011B  00F4               	movwf	__Umul8_16@multiplicand
  3777     011C  0857               	movf	___flmul@a+1,w
  3778     011D  3187  279A  3180   	fcall	__Umul8_16
  3779     0120  0875               	movf	?__Umul8_16+1,w
  3780     0121  0020               	movlb	0	; select bank0
  3781     0122  00EB               	movwf	___flmul@temp+1
  3782     0123  0874               	movf	?__Umul8_16,w
  3783     0124  00EA               	movwf	___flmul@temp
  3784     0125                     l2419:
  3785     0125  086A               	movf	___flmul@temp,w
  3786     0126  07E1               	addwf	___flmul@grs,f
  3787     0127  086B               	movf	___flmul@temp+1,w
  3788     0128  3DE2               	addwfc	___flmul@grs+1,f
  3789     0129  3000               	movlw	0
  3790     012A  3DE3               	addwfc	___flmul@grs+2,f
  3791     012B  3DE4               	addwfc	___flmul@grs+3,f
  3792     012C                     l2421:
  3793     012C  3008               	movlw	8
  3794     012D                     u2345:
  3795     012D  35E1               	lslf	___flmul@grs,f
  3796     012E  0DE2               	rlf	___flmul@grs+1,f
  3797     012F  0DE3               	rlf	___flmul@grs+2,f
  3798     0130  0DE4               	rlf	___flmul@grs+3,f
  3799     0131  0B89               	decfsz	9,f
  3800     0132  292D               	goto	u2345
  3801     0133  0852               	movf	___flmul@b,w
  3802     0134  00F4               	movwf	__Umul8_16@multiplicand
  3803     0135  0856               	movf	___flmul@a,w
  3804     0136  3187  279A  3180   	fcall	__Umul8_16
  3805     0139  0875               	movf	?__Umul8_16+1,w
  3806     013A  0020               	movlb	0	; select bank0
  3807     013B  00EB               	movwf	___flmul@temp+1
  3808     013C  0874               	movf	?__Umul8_16,w
  3809     013D  00EA               	movwf	___flmul@temp
  3810     013E                     l2423:
  3811     013E  086A               	movf	___flmul@temp,w
  3812     013F  07E1               	addwf	___flmul@grs,f
  3813     0140  086B               	movf	___flmul@temp+1,w
  3814     0141  3DE2               	addwfc	___flmul@grs+1,f
  3815     0142  3000               	movlw	0
  3816     0143  3DE3               	addwfc	___flmul@grs+2,f
  3817     0144  3DE4               	addwfc	___flmul@grs+3,f
  3818     0145                     l2425:
  3819     0145  0853               	movf	___flmul@b+1,w
  3820     0146  00F4               	movwf	__Umul8_16@multiplicand
  3821     0147  0858               	movf	___flmul@a+2,w
  3822     0148  3187  279A  3180   	fcall	__Umul8_16
  3823     014B  0875               	movf	?__Umul8_16+1,w
  3824     014C  0020               	movlb	0	; select bank0
  3825     014D  00EB               	movwf	___flmul@temp+1
  3826     014E  0874               	movf	?__Umul8_16,w
  3827     014F  00EA               	movwf	___flmul@temp
  3828     0150  086A               	movf	___flmul@temp,w
  3829     0151  07E6               	addwf	___flmul@prod,f
  3830     0152  086B               	movf	___flmul@temp+1,w
  3831     0153  3DE7               	addwfc	___flmul@prod+1,f
  3832     0154  3000               	movlw	0
  3833     0155  3DE8               	addwfc	___flmul@prod+2,f
  3834     0156  3DE9               	addwfc	___flmul@prod+3,f
  3835     0157                     l2427:
  3836     0157  0854               	movf	___flmul@b+2,w
  3837     0158  00F4               	movwf	__Umul8_16@multiplicand
  3838     0159  0857               	movf	___flmul@a+1,w
  3839     015A  3187  279A  3180   	fcall	__Umul8_16
  3840     015D  0875               	movf	?__Umul8_16+1,w
  3841     015E  0020               	movlb	0	; select bank0
  3842     015F  00EB               	movwf	___flmul@temp+1
  3843     0160  0874               	movf	?__Umul8_16,w
  3844     0161  00EA               	movwf	___flmul@temp
  3845     0162                     l2429:
  3846     0162  086A               	movf	___flmul@temp,w
  3847     0163  07E6               	addwf	___flmul@prod,f
  3848     0164  086B               	movf	___flmul@temp+1,w
  3849     0165  3DE7               	addwfc	___flmul@prod+1,f
  3850     0166  3000               	movlw	0
  3851     0167  3DE8               	addwfc	___flmul@prod+2,f
  3852     0168  3DE9               	addwfc	___flmul@prod+3,f
  3853     0169  0854               	movf	___flmul@b+2,w
  3854     016A  00F4               	movwf	__Umul8_16@multiplicand
  3855     016B  0858               	movf	___flmul@a+2,w
  3856     016C  3187  279A  3180   	fcall	__Umul8_16
  3857     016F  0875               	movf	?__Umul8_16+1,w
  3858     0170  0020               	movlb	0	; select bank0
  3859     0171  00EB               	movwf	___flmul@temp+1
  3860     0172  0874               	movf	?__Umul8_16,w
  3861     0173  00EA               	movwf	___flmul@temp
  3862     0174                     l2431:
  3863     0174  086A               	movf	___flmul@temp,w
  3864     0175  00DA               	movwf	??___flmul
  3865     0176  086B               	movf	___flmul@temp+1,w
  3866     0177  00DB               	movwf	??___flmul+1
  3867     0178  01DC               	clrf	??___flmul+2
  3868     0179  01DD               	clrf	??___flmul+3
  3869     017A  3008               	movlw	8
  3870     017B                     u2355:
  3871     017B  35DA               	lslf	??___flmul,f
  3872     017C  0DDB               	rlf	??___flmul+1,f
  3873     017D  0DDC               	rlf	??___flmul+2,f
  3874     017E  0DDD               	rlf	??___flmul+3,f
  3875     017F                     u2350:
  3876     017F  0B89               	decfsz	9,f
  3877     0180  297B               	goto	u2355
  3878     0181  085A               	movf	??___flmul,w
  3879     0182  07E6               	addwf	___flmul@prod,f
  3880     0183  085B               	movf	??___flmul+1,w
  3881     0184  3DE7               	addwfc	___flmul@prod+1,f
  3882     0185  085C               	movf	??___flmul+2,w
  3883     0186  3DE8               	addwfc	___flmul@prod+2,f
  3884     0187  085D               	movf	??___flmul+3,w
  3885     0188  3DE9               	addwfc	___flmul@prod+3,f
  3886     0189                     l2433:
  3887     0189  0861               	movf	___flmul@grs,w
  3888     018A  00DA               	movwf	??___flmul
  3889     018B  0862               	movf	___flmul@grs+1,w
  3890     018C  00DB               	movwf	??___flmul+1
  3891     018D  0863               	movf	___flmul@grs+2,w
  3892     018E  00DC               	movwf	??___flmul+2
  3893     018F  0864               	movf	___flmul@grs+3,w
  3894     0190  00DD               	movwf	??___flmul+3
  3895     0191  3018               	movlw	24
  3896     0192                     u2365:
  3897     0192  36DD               	lsrf	??___flmul+3,f
  3898     0193  0CDC               	rrf	??___flmul+2,f
  3899     0194  0CDB               	rrf	??___flmul+1,f
  3900     0195  0CDA               	rrf	??___flmul,f
  3901     0196                     u2360:
  3902     0196  0B89               	decfsz	9,f
  3903     0197  2992               	goto	u2365
  3904     0198  085A               	movf	??___flmul,w
  3905     0199  07E6               	addwf	___flmul@prod,f
  3906     019A  085B               	movf	??___flmul+1,w
  3907     019B  3DE7               	addwfc	___flmul@prod+1,f
  3908     019C  085C               	movf	??___flmul+2,w
  3909     019D  3DE8               	addwfc	___flmul@prod+2,f
  3910     019E  085D               	movf	??___flmul+3,w
  3911     019F  3DE9               	addwfc	___flmul@prod+3,f
  3912     01A0                     l2435:
  3913     01A0  3008               	movlw	8
  3914     01A1                     u2375:
  3915     01A1  35E1               	lslf	___flmul@grs,f
  3916     01A2  0DE2               	rlf	___flmul@grs+1,f
  3917     01A3  0DE3               	rlf	___flmul@grs+2,f
  3918     01A4  0DE4               	rlf	___flmul@grs+3,f
  3919     01A5  0B89               	decfsz	9,f
  3920     01A6  29A1               	goto	u2375
  3921     01A7                     l2437:
  3922     01A7  0865               	movf	___flmul@bexp,w
  3923     01A8  0760               	addwf	___flmul@aexp,w
  3924     01A9  00DA               	movwf	??___flmul
  3925     01AA  01DB               	clrf	??___flmul+1
  3926     01AB  0DDB               	rlf	??___flmul+1,f
  3927     01AC  085A               	movf	??___flmul,w
  3928     01AD  3E82               	addlw	130
  3929     01AE  00EA               	movwf	___flmul@temp
  3930     01AF  30FF               	movlw	255
  3931     01B0  3D5B               	addwfc	??___flmul+1,w
  3932     01B1  00EB               	movwf	___flmul@temp+1
  3933     01B2  29CA               	goto	l2449
  3934     01B3                     l2439:
  3935     01B3  3001               	movlw	1
  3936     01B4                     u2385:
  3937     01B4  35E6               	lslf	___flmul@prod,f
  3938     01B5  0DE7               	rlf	___flmul@prod+1,f
  3939     01B6  0DE8               	rlf	___flmul@prod+2,f
  3940     01B7  0DE9               	rlf	___flmul@prod+3,f
  3941     01B8  0B89               	decfsz	9,f
  3942     01B9  29B4               	goto	u2385
  3943     01BA                     l2441:
  3944     01BA  1FE4               	btfss	___flmul@grs+3,7
  3945     01BB  29BD               	goto	u2391
  3946     01BC  29BE               	goto	u2390
  3947     01BD                     u2391:
  3948     01BD  29BF               	goto	l2445
  3949     01BE                     u2390:
  3950     01BE                     l2443:
  3951     01BE  1466               	bsf	___flmul@prod,0
  3952     01BF                     l2445:
  3953     01BF  3001               	movlw	1
  3954     01C0                     u2405:
  3955     01C0  35E1               	lslf	___flmul@grs,f
  3956     01C1  0DE2               	rlf	___flmul@grs+1,f
  3957     01C2  0DE3               	rlf	___flmul@grs+2,f
  3958     01C3  0DE4               	rlf	___flmul@grs+3,f
  3959     01C4  0B89               	decfsz	9,f
  3960     01C5  29C0               	goto	u2405
  3961     01C6                     l2447:
  3962     01C6  30FF               	movlw	255
  3963     01C7  07EA               	addwf	___flmul@temp,f
  3964     01C8  30FF               	movlw	255
  3965     01C9  3DEB               	addwfc	___flmul@temp+1,f
  3966     01CA                     l2449:
  3967     01CA  1FE8               	btfss	___flmul@prod+2,7
  3968     01CB  29CD               	goto	u2411
  3969     01CC  29CE               	goto	u2410
  3970     01CD                     u2411:
  3971     01CD  29B3               	goto	l2439
  3972     01CE                     u2410:
  3973     01CE                     l2451:
  3974     01CE  01E0               	clrf	___flmul@aexp
  3975     01CF                     l2453:
  3976     01CF  1FE4               	btfss	___flmul@grs+3,7
  3977     01D0  29D2               	goto	u2421
  3978     01D1  29D3               	goto	u2420
  3979     01D2                     u2421:
  3980     01D2  29EF               	goto	l2461
  3981     01D3                     u2420:
  3982     01D3                     l2455:
  3983     01D3  30FF               	movlw	255
  3984     01D4  0561               	andwf	___flmul@grs,w
  3985     01D5  00DA               	movwf	??___flmul
  3986     01D6  30FF               	movlw	255
  3987     01D7  0562               	andwf	___flmul@grs+1,w
  3988     01D8  00DB               	movwf	??___flmul+1
  3989     01D9  30FF               	movlw	255
  3990     01DA  0563               	andwf	___flmul@grs+2,w
  3991     01DB  00DC               	movwf	??___flmul+2
  3992     01DC  307F               	movlw	127
  3993     01DD  0564               	andwf	___flmul@grs+3,w
  3994     01DE  00DD               	movwf	??___flmul+3
  3995     01DF  085D               	movf	??___flmul+3,w
  3996     01E0  045C               	iorwf	??___flmul+2,w
  3997     01E1  045B               	iorwf	??___flmul+1,w
  3998     01E2  045A               	iorwf	??___flmul,w
  3999     01E3  1903               	skipnz
  4000     01E4  29E6               	goto	u2431
  4001     01E5  29E7               	goto	u2430
  4002     01E6                     u2431:
  4003     01E6  29EA               	goto	l942
  4004     01E7                     u2430:
  4005     01E7                     l2457:
  4006     01E7  01E0               	clrf	___flmul@aexp
  4007     01E8  0AE0               	incf	___flmul@aexp,f
  4008     01E9  29EF               	goto	l2461
  4009     01EA                     l942:
  4010     01EA  1C66               	btfss	___flmul@prod,0
  4011     01EB  29ED               	goto	u2441
  4012     01EC  29EE               	goto	u2440
  4013     01ED                     u2441:
  4014     01ED  29EF               	goto	l2461
  4015     01EE                     u2440:
  4016     01EE  29E7               	goto	l2457
  4017     01EF                     l2461:
  4018     01EF  0860               	movf	___flmul@aexp,w
  4019     01F0  1903               	btfsc	3,2
  4020     01F1  29F3               	goto	u2451
  4021     01F2  29F4               	goto	u2450
  4022     01F3                     u2451:
  4023     01F3  2A1C               	goto	l2471
  4024     01F4                     u2450:
  4025     01F4                     l2463:
  4026     01F4  3001               	movlw	1
  4027     01F5  07E6               	addwf	___flmul@prod,f
  4028     01F6  3000               	movlw	0
  4029     01F7  3DE7               	addwfc	___flmul@prod+1,f
  4030     01F8  3000               	movlw	0
  4031     01F9  3DE8               	addwfc	___flmul@prod+2,f
  4032     01FA  3000               	movlw	0
  4033     01FB  3DE9               	addwfc	___flmul@prod+3,f
  4034     01FC                     l2465:
  4035     01FC  1C69               	btfss	___flmul@prod+3,0
  4036     01FD  29FF               	goto	u2461
  4037     01FE  2A00               	goto	u2460
  4038     01FF                     u2461:
  4039     01FF  2A1C               	goto	l2471
  4040     0200                     u2460:
  4041     0200                     l2467:
  4042     0200  0866               	movf	___flmul@prod,w
  4043     0201  00DA               	movwf	??___flmul
  4044     0202  0867               	movf	___flmul@prod+1,w
  4045     0203  00DB               	movwf	??___flmul+1
  4046     0204  0868               	movf	___flmul@prod+2,w
  4047     0205  00DC               	movwf	??___flmul+2
  4048     0206  0869               	movf	___flmul@prod+3,w
  4049     0207  00DD               	movwf	??___flmul+3
  4050     0208  3001               	movlw	1
  4051     0209  00DE               	movwf	??___flmul+4
  4052     020A                     u2475:
  4053     020A  37DD               	asrf	??___flmul+3,f
  4054     020B  0CDC               	rrf	??___flmul+2,f
  4055     020C  0CDB               	rrf	??___flmul+1,f
  4056     020D  0CDA               	rrf	??___flmul,f
  4057     020E                     u2470:
  4058     020E  0BDE               	decfsz	??___flmul+4,f
  4059     020F  2A0A               	goto	u2475
  4060     0210  085D               	movf	??___flmul+3,w
  4061     0211  00E9               	movwf	___flmul@prod+3
  4062     0212  085C               	movf	??___flmul+2,w
  4063     0213  00E8               	movwf	___flmul@prod+2
  4064     0214  085B               	movf	??___flmul+1,w
  4065     0215  00E7               	movwf	___flmul@prod+1
  4066     0216  085A               	movf	??___flmul,w
  4067     0217  00E6               	movwf	___flmul@prod
  4068     0218                     l2469:
  4069     0218  3001               	movlw	1
  4070     0219  07EA               	addwf	___flmul@temp,f
  4071     021A  3000               	movlw	0
  4072     021B  3DEB               	addwfc	___flmul@temp+1,f
  4073     021C                     l2471:
  4074     021C  086B               	movf	___flmul@temp+1,w
  4075     021D  3A80               	xorlw	128
  4076     021E  00DA               	movwf	??___flmul
  4077     021F  3080               	movlw	128
  4078     0220  025A               	subwf	??___flmul,w
  4079     0221  1D03               	skipz
  4080     0222  2A25               	goto	u2485
  4081     0223  30FF               	movlw	255
  4082     0224  026A               	subwf	___flmul@temp,w
  4083     0225                     u2485:
  4084     0225  1C03               	skipc
  4085     0226  2A28               	goto	u2481
  4086     0227  2A29               	goto	u2480
  4087     0228                     u2481:
  4088     0228  2A33               	goto	l2475
  4089     0229                     u2480:
  4090     0229                     l2473:
  4091     0229  307F               	movlw	127
  4092     022A  0020               	movlb	0	; select bank0
  4093     022B  00E9               	movwf	___flmul@prod+3
  4094     022C  3080               	movlw	128
  4095     022D  00E8               	movwf	___flmul@prod+2
  4096     022E  3000               	movlw	0
  4097     022F  00E7               	movwf	___flmul@prod+1
  4098     0230  3000               	movlw	0
  4099     0231  00E6               	movwf	___flmul@prod
  4100     0232  2A5E               	goto	l948
  4101     0233                     l2475:
  4102     0233  0020               	movlb	0	; select bank0
  4103     0234  086B               	movf	___flmul@temp+1,w
  4104     0235  3A80               	xorlw	128
  4105     0236  00DA               	movwf	??___flmul
  4106     0237  3080               	movlw	128
  4107     0238  025A               	subwf	??___flmul,w
  4108     0239  1D03               	skipz
  4109     023A  2A3D               	goto	u2495
  4110     023B  3001               	movlw	1
  4111     023C  026A               	subwf	___flmul@temp,w
  4112     023D                     u2495:
  4113     023D  1803               	skipnc
  4114     023E  2A40               	goto	u2491
  4115     023F  2A41               	goto	u2490
  4116     0240                     u2491:
  4117     0240  2A4C               	goto	l2481
  4118     0241                     u2490:
  4119     0241                     l2477:
  4120     0241  3000               	movlw	0
  4121     0242  0020               	movlb	0	; select bank0
  4122     0243  00E9               	movwf	___flmul@prod+3
  4123     0244  3000               	movlw	0
  4124     0245  00E8               	movwf	___flmul@prod+2
  4125     0246  3000               	movlw	0
  4126     0247  00E7               	movwf	___flmul@prod+1
  4127     0248  3000               	movlw	0
  4128     0249  00E6               	movwf	___flmul@prod
  4129     024A                     l2479:
  4130     024A  01DF               	clrf	___flmul@sign
  4131     024B  2A5E               	goto	l948
  4132     024C                     l2481:
  4133     024C  0020               	movlb	0	; select bank0
  4134     024D  086A               	movf	___flmul@temp,w
  4135     024E  00E5               	movwf	___flmul@bexp
  4136     024F  30FF               	movlw	255
  4137     0250  05E6               	andwf	___flmul@prod,f
  4138     0251  30FF               	movlw	255
  4139     0252  05E7               	andwf	___flmul@prod+1,f
  4140     0253  307F               	movlw	127
  4141     0254  05E8               	andwf	___flmul@prod+2,f
  4142     0255  3000               	movlw	0
  4143     0256  05E9               	andwf	___flmul@prod+3,f
  4144     0257                     l2483:
  4145     0257  1C65               	btfss	___flmul@bexp,0
  4146     0258  2A5A               	goto	u2501
  4147     0259  2A5B               	goto	u2500
  4148     025A                     u2501:
  4149     025A  2A5C               	goto	l2487
  4150     025B                     u2500:
  4151     025B                     l2485:
  4152     025B  17E8               	bsf	___flmul@prod+2,7
  4153     025C                     l2487:
  4154     025C  3665               	lsrf	___flmul@bexp,w
  4155     025D  00E9               	movwf	___flmul@prod+3
  4156     025E                     l948:
  4157     025E  085F               	movf	___flmul@sign,w
  4158     025F  00DA               	movwf	??___flmul
  4159     0260  085A               	movf	??___flmul,w
  4160     0261  04E9               	iorwf	___flmul@prod+3,f
  4161     0262                     l2489:
  4162     0262  0869               	movf	___flmul@prod+3,w
  4163     0263  00D5               	movwf	?___flmul+3
  4164     0264  0868               	movf	___flmul@prod+2,w
  4165     0265  00D4               	movwf	?___flmul+2
  4166     0266  0867               	movf	___flmul@prod+1,w
  4167     0267  00D3               	movwf	?___flmul+1
  4168     0268  0866               	movf	___flmul@prod,w
  4169     0269  00D2               	movwf	?___flmul
  4170     026A                     l936:
  4171     026A  0008               	return
  4172     026B                     __end_of___flmul:
  4173                           
  4174                           	psect	text4
  4175     079A                     __ptext4:	
  4176 ;; *************** function __Umul8_16 *****************
  4177 ;; Defined at:
  4178 ;;		line 4 in file "C:\Program Files\Microchip\xc8\v2.46\pic\sources\c99\common\Umul8_16.c"
  4179 ;; Parameters:    Size  Location     Type
  4180 ;;  multiplier      1    wreg     unsigned char 
  4181 ;;  multiplicand    1    4[COMMON] unsigned char 
  4182 ;; Auto vars:     Size  Location     Type
  4183 ;;  multiplier      1    6[BANK0 ] unsigned char 
  4184 ;;  word_mpld       2    4[BANK0 ] unsigned short 
  4185 ;;  product         2    2[BANK0 ] unsigned short 
  4186 ;; Return value:  Size  Location     Type
  4187 ;;                  2    4[COMMON] unsigned int 
  4188 ;; Registers used:
  4189 ;;		wreg, status,2, status,0
  4190 ;; Tracked objects:
  4191 ;;		On entry : 0/0
  4192 ;;		On exit  : 0/0
  4193 ;;		Unchanged: 0/0
  4194 ;; Data sizes:     COMMON   BANK0   BANK1   BANK2   BANK3   BANK4
  4195 ;;      Params:         2       0       0       0       0       0
  4196 ;;      Locals:         0       5       0       0       0       0
  4197 ;;      Temps:          0       2       0       0       0       0
  4198 ;;      Totals:         2       7       0       0       0       0
  4199 ;;Total ram usage:        9 bytes
  4200 ;; Hardware stack levels used: 1
  4201 ;; Hardware stack levels required when called: 5
  4202 ;; This function calls:
  4203 ;;		Nothing
  4204 ;; This function is called by:
  4205 ;;		___flmul
  4206 ;; This function uses a non-reentrant model
  4207 ;;
  4208                           
  4209     079A                     __Umul8_16:	
  4210                           ;psect for function __Umul8_16
  4211                           
  4212                           
  4213                           ;incstack = 0
  4214                           ; Regs used in __Umul8_16: [wreg+status,2+status,0]
  4215                           ;__Umul8_16@multiplier stored from wreg
  4216     079A  0020               	movlb	0	; select bank0
  4217     079B  00A6               	movwf	__Umul8_16@multiplier
  4218     079C                     l2289:
  4219     079C  01A2               	clrf	__Umul8_16@product
  4220     079D  01A3               	clrf	__Umul8_16@product+1
  4221     079E                     l2291:
  4222     079E  0874               	movf	__Umul8_16@multiplicand,w
  4223     079F  00A0               	movwf	??__Umul8_16
  4224     07A0  01A1               	clrf	??__Umul8_16+1
  4225     07A1  0820               	movf	??__Umul8_16,w
  4226     07A2  00A4               	movwf	__Umul8_16@word_mpld
  4227     07A3  0821               	movf	??__Umul8_16+1,w
  4228     07A4  00A5               	movwf	__Umul8_16@word_mpld+1
  4229     07A5                     l2293:
  4230     07A5  1C26               	btfss	__Umul8_16@multiplier,0
  4231     07A6  2FA8               	goto	u2101
  4232     07A7  2FA9               	goto	u2100
  4233     07A8                     u2101:
  4234     07A8  2FAD               	goto	l955
  4235     07A9                     u2100:
  4236     07A9                     l2295:
  4237     07A9  0824               	movf	__Umul8_16@word_mpld,w
  4238     07AA  07A2               	addwf	__Umul8_16@product,f
  4239     07AB  0825               	movf	__Umul8_16@word_mpld+1,w
  4240     07AC  3DA3               	addwfc	__Umul8_16@product+1,f
  4241     07AD                     l955:
  4242     07AD  3001               	movlw	1
  4243     07AE                     u2115:
  4244     07AE  35A4               	lslf	__Umul8_16@word_mpld,f
  4245     07AF  0DA5               	rlf	__Umul8_16@word_mpld+1,f
  4246     07B0  0B89               	decfsz	9,f
  4247     07B1  2FAE               	goto	u2115
  4248     07B2  1003               	clrc
  4249     07B3  0CA6               	rrf	__Umul8_16@multiplier,f
  4250     07B4                     l2297:
  4251     07B4  0826               	movf	__Umul8_16@multiplier,w
  4252     07B5  1D03               	btfss	3,2
  4253     07B6  2FB8               	goto	u2121
  4254     07B7  2FB9               	goto	u2120
  4255     07B8                     u2121:
  4256     07B8  2FA5               	goto	l2293
  4257     07B9                     u2120:
  4258     07B9                     l2299:
  4259     07B9  0823               	movf	__Umul8_16@product+1,w
  4260     07BA  00F5               	movwf	?__Umul8_16+1
  4261     07BB  0822               	movf	__Umul8_16@product,w
  4262     07BC  00F4               	movwf	?__Umul8_16
  4263     07BD                     l957:
  4264     07BD  0008               	return
  4265     07BE                     __end_of__Umul8_16:
  4266                           
  4267                           	psect	text5
  4268     049B                     __ptext5:	
  4269 ;; *************** function ___fldiv *****************
  4270 ;; Defined at:
  4271 ;;		line 8 in file "C:\Program Files\Microchip\xc8\v2.46\pic\sources\c99\common\sprcdiv.c"
  4272 ;; Parameters:    Size  Location     Type
  4273 ;;  a               4   14[BANK0 ] unsigned int 
  4274 ;;  b               4   18[BANK0 ] unsigned int 
  4275 ;; Auto vars:     Size  Location     Type
  4276 ;;  grs             4   34[BANK0 ] unsigned long 
  4277 ;;  rem             4   27[BANK0 ] unsigned long 
  4278 ;;  new_exp         2   32[BANK0 ] short 
  4279 ;;  aexp            1   39[BANK0 ] unsigned char 
  4280 ;;  bexp            1   38[BANK0 ] unsigned char 
  4281 ;;  sign            1   31[BANK0 ] unsigned char 
  4282 ;; Return value:  Size  Location     Type
  4283 ;;                  4   14[BANK0 ] unsigned char 
  4284 ;; Registers used:
  4285 ;;		wreg, status,2, status,0
  4286 ;; Tracked objects:
  4287 ;;		On entry : 0/0
  4288 ;;		On exit  : 0/0
  4289 ;;		Unchanged: 0/0
  4290 ;; Data sizes:     COMMON   BANK0   BANK1   BANK2   BANK3   BANK4
  4291 ;;      Params:         0       8       0       0       0       0
  4292 ;;      Locals:         0      13       0       0       0       0
  4293 ;;      Temps:          0       5       0       0       0       0
  4294 ;;      Totals:         0      26       0       0       0       0
  4295 ;;Total ram usage:       26 bytes
  4296 ;; Hardware stack levels used: 1
  4297 ;; Hardware stack levels required when called: 5
  4298 ;; This function calls:
  4299 ;;		Nothing
  4300 ;; This function is called by:
  4301 ;;		_main
  4302 ;; This function uses a non-reentrant model
  4303 ;;
  4304                           
  4305     049B                     ___fldiv:	
  4306                           ;psect for function ___fldiv
  4307                           
  4308     049B                     l1897:	
  4309                           ;incstack = 0
  4310                           ; Regs used in ___fldiv: [wreg+status,2+status,0]
  4311                           
  4312     049B  0020               	movlb	0	; select bank0
  4313     049C  0835               	movf	___fldiv@b+3,w
  4314     049D  3980               	andlw	128
  4315     049E  00BF               	movwf	___fldiv@sign
  4316     049F                     l1899:
  4317     049F  3535               	lslf	___fldiv@b+3,w
  4318     04A0  00C6               	movwf	___fldiv@bexp
  4319     04A1                     l1901:
  4320     04A1  1FB4               	btfss	___fldiv@b+2,7
  4321     04A2  2CA4               	goto	u1321
  4322     04A3  2CA5               	goto	u1320
  4323     04A4                     u1321:
  4324     04A4  2CA6               	goto	l1905
  4325     04A5                     u1320:
  4326     04A5                     l1903:
  4327     04A5  1446               	bsf	___fldiv@bexp,0
  4328     04A6                     l1905:
  4329     04A6  0846               	movf	___fldiv@bexp,w
  4330     04A7  1903               	btfsc	3,2
  4331     04A8  2CAA               	goto	u1331
  4332     04A9  2CAB               	goto	u1330
  4333     04AA                     u1331:
  4334     04AA  2CBB               	goto	l1915
  4335     04AB                     u1330:
  4336     04AB                     l1907:
  4337     04AB  0A46               	incf	___fldiv@bexp,w
  4338     04AC  1D03               	btfss	3,2
  4339     04AD  2CAF               	goto	u1341
  4340     04AE  2CB0               	goto	u1340
  4341     04AF                     u1341:
  4342     04AF  2CB8               	goto	l1911
  4343     04B0                     u1340:
  4344     04B0                     l1909:
  4345     04B0  3000               	movlw	0
  4346     04B1  00B5               	movwf	___fldiv@b+3
  4347     04B2  3000               	movlw	0
  4348     04B3  00B4               	movwf	___fldiv@b+2
  4349     04B4  3000               	movlw	0
  4350     04B5  00B3               	movwf	___fldiv@b+1
  4351     04B6  3000               	movlw	0
  4352     04B7  00B2               	movwf	___fldiv@b
  4353     04B8                     l1911:
  4354     04B8  17B4               	bsf	___fldiv@b+2,7
  4355     04B9                     l1913:
  4356     04B9  01B5               	clrf	___fldiv@b+3
  4357     04BA  2CC3               	goto	l1917
  4358     04BB                     l1915:
  4359     04BB  3000               	movlw	0
  4360     04BC  00B5               	movwf	___fldiv@b+3
  4361     04BD  3000               	movlw	0
  4362     04BE  00B4               	movwf	___fldiv@b+2
  4363     04BF  3000               	movlw	0
  4364     04C0  00B3               	movwf	___fldiv@b+1
  4365     04C1  3000               	movlw	0
  4366     04C2  00B2               	movwf	___fldiv@b
  4367     04C3                     l1917:
  4368     04C3  0831               	movf	___fldiv@a+3,w
  4369     04C4  3980               	andlw	128
  4370     04C5  00B6               	movwf	??___fldiv
  4371     04C6  0836               	movf	??___fldiv,w
  4372     04C7  06BF               	xorwf	___fldiv@sign,f
  4373     04C8                     l1919:
  4374     04C8  3531               	lslf	___fldiv@a+3,w
  4375     04C9  00C7               	movwf	___fldiv@aexp
  4376     04CA                     l1921:
  4377     04CA  1FB0               	btfss	___fldiv@a+2,7
  4378     04CB  2CCD               	goto	u1351
  4379     04CC  2CCE               	goto	u1350
  4380     04CD                     u1351:
  4381     04CD  2CCF               	goto	l1925
  4382     04CE                     u1350:
  4383     04CE                     l1923:
  4384     04CE  1447               	bsf	___fldiv@aexp,0
  4385     04CF                     l1925:
  4386     04CF  0847               	movf	___fldiv@aexp,w
  4387     04D0  1903               	btfsc	3,2
  4388     04D1  2CD3               	goto	u1361
  4389     04D2  2CD4               	goto	u1360
  4390     04D3                     u1361:
  4391     04D3  2CE4               	goto	l1935
  4392     04D4                     u1360:
  4393     04D4                     l1927:
  4394     04D4  0A47               	incf	___fldiv@aexp,w
  4395     04D5  1D03               	btfss	3,2
  4396     04D6  2CD8               	goto	u1371
  4397     04D7  2CD9               	goto	u1370
  4398     04D8                     u1371:
  4399     04D8  2CE1               	goto	l1931
  4400     04D9                     u1370:
  4401     04D9                     l1929:
  4402     04D9  3000               	movlw	0
  4403     04DA  00B1               	movwf	___fldiv@a+3
  4404     04DB  3000               	movlw	0
  4405     04DC  00B0               	movwf	___fldiv@a+2
  4406     04DD  3000               	movlw	0
  4407     04DE  00AF               	movwf	___fldiv@a+1
  4408     04DF  3000               	movlw	0
  4409     04E0  00AE               	movwf	___fldiv@a
  4410     04E1                     l1931:
  4411     04E1  17B0               	bsf	___fldiv@a+2,7
  4412     04E2                     l1933:
  4413     04E2  01B1               	clrf	___fldiv@a+3
  4414     04E3  2CEC               	goto	l896
  4415     04E4                     l1935:
  4416     04E4  3000               	movlw	0
  4417     04E5  00B1               	movwf	___fldiv@a+3
  4418     04E6  3000               	movlw	0
  4419     04E7  00B0               	movwf	___fldiv@a+2
  4420     04E8  3000               	movlw	0
  4421     04E9  00AF               	movwf	___fldiv@a+1
  4422     04EA  3000               	movlw	0
  4423     04EB  00AE               	movwf	___fldiv@a
  4424     04EC                     l896:
  4425     04EC  0831               	movf	___fldiv@a+3,w
  4426     04ED  0430               	iorwf	___fldiv@a+2,w
  4427     04EE  042F               	iorwf	___fldiv@a+1,w
  4428     04EF  042E               	iorwf	___fldiv@a,w
  4429     04F0  1D03               	skipz
  4430     04F1  2CF3               	goto	u1381
  4431     04F2  2CF4               	goto	u1380
  4432     04F3                     u1381:
  4433     04F3  2D0D               	goto	l1945
  4434     04F4                     u1380:
  4435     04F4                     l1937:
  4436     04F4  3000               	movlw	0
  4437     04F5  00B5               	movwf	___fldiv@b+3
  4438     04F6  3000               	movlw	0
  4439     04F7  00B4               	movwf	___fldiv@b+2
  4440     04F8  3000               	movlw	0
  4441     04F9  00B3               	movwf	___fldiv@b+1
  4442     04FA  3000               	movlw	0
  4443     04FB  00B2               	movwf	___fldiv@b
  4444     04FC  3080               	movlw	128
  4445     04FD  04B4               	iorwf	___fldiv@b+2,f
  4446     04FE  307F               	movlw	127
  4447     04FF  04B5               	iorwf	___fldiv@b+3,f
  4448     0500                     l1939:
  4449     0500  083F               	movf	___fldiv@sign,w
  4450     0501  00B6               	movwf	??___fldiv
  4451     0502  0836               	movf	??___fldiv,w
  4452     0503  04B5               	iorwf	___fldiv@b+3,f
  4453     0504                     l1941:
  4454     0504  0835               	movf	___fldiv@b+3,w
  4455     0505  00B1               	movwf	?___fldiv+3
  4456     0506  0834               	movf	___fldiv@b+2,w
  4457     0507  00B0               	movwf	?___fldiv+2
  4458     0508  0833               	movf	___fldiv@b+1,w
  4459     0509  00AF               	movwf	?___fldiv+1
  4460     050A  0832               	movf	___fldiv@b,w
  4461     050B  00AE               	movwf	?___fldiv
  4462     050C  2E44               	goto	l898
  4463     050D                     l1945:
  4464     050D  0846               	movf	___fldiv@bexp,w
  4465     050E  1D03               	btfss	3,2
  4466     050F  2D11               	goto	u1391
  4467     0510  2D12               	goto	u1390
  4468     0511                     u1391:
  4469     0511  2D1B               	goto	l1951
  4470     0512                     u1390:
  4471     0512                     l1947:
  4472     0512  3000               	movlw	0
  4473     0513  00B1               	movwf	?___fldiv+3
  4474     0514  3000               	movlw	0
  4475     0515  00B0               	movwf	?___fldiv+2
  4476     0516  3000               	movlw	0
  4477     0517  00AF               	movwf	?___fldiv+1
  4478     0518  3000               	movlw	0
  4479     0519  00AE               	movwf	?___fldiv
  4480     051A  2E44               	goto	l898
  4481     051B                     l1951:
  4482     051B  0846               	movf	___fldiv@bexp,w
  4483     051C  00B6               	movwf	??___fldiv
  4484     051D  01B7               	clrf	??___fldiv+1
  4485     051E  0837               	movf	??___fldiv+1,w
  4486     051F  00B9               	movwf	??___fldiv+3
  4487     0520  0847               	movf	___fldiv@aexp,w
  4488     0521  0236               	subwf	??___fldiv,w
  4489     0522  00B8               	movwf	??___fldiv+2
  4490     0523  1C03               	skipc
  4491     0524  03B9               	decf	??___fldiv+3,f
  4492     0525  0838               	movf	??___fldiv+2,w
  4493     0526  3E7F               	addlw	127
  4494     0527  00C0               	movwf	___fldiv@new_exp
  4495     0528  3000               	movlw	0
  4496     0529  3D39               	addwfc	??___fldiv+3,w
  4497     052A  00C1               	movwf	___fldiv@new_exp+1
  4498     052B                     l1953:
  4499     052B  0835               	movf	___fldiv@b+3,w
  4500     052C  00BE               	movwf	___fldiv@rem+3
  4501     052D  0834               	movf	___fldiv@b+2,w
  4502     052E  00BD               	movwf	___fldiv@rem+2
  4503     052F  0833               	movf	___fldiv@b+1,w
  4504     0530  00BC               	movwf	___fldiv@rem+1
  4505     0531  0832               	movf	___fldiv@b,w
  4506     0532  00BB               	movwf	___fldiv@rem
  4507     0533                     l1955:
  4508     0533  3000               	movlw	0
  4509     0534  00B5               	movwf	___fldiv@b+3
  4510     0535  3000               	movlw	0
  4511     0536  00B4               	movwf	___fldiv@b+2
  4512     0537  3000               	movlw	0
  4513     0538  00B3               	movwf	___fldiv@b+1
  4514     0539  3000               	movlw	0
  4515     053A  00B2               	movwf	___fldiv@b
  4516     053B                     l1957:
  4517     053B  3000               	movlw	0
  4518     053C  00C5               	movwf	___fldiv@grs+3
  4519     053D  3000               	movlw	0
  4520     053E  00C4               	movwf	___fldiv@grs+2
  4521     053F  3000               	movlw	0
  4522     0540  00C3               	movwf	___fldiv@grs+1
  4523     0541  3000               	movlw	0
  4524     0542  00C2               	movwf	___fldiv@grs
  4525     0543                     l1959:
  4526     0543  01C7               	clrf	___fldiv@aexp
  4527     0544  2D83               	goto	l1979
  4528     0545                     l1961:
  4529     0545  0847               	movf	___fldiv@aexp,w
  4530     0546  1903               	btfsc	3,2
  4531     0547  2D49               	goto	u1401
  4532     0548  2D4A               	goto	u1400
  4533     0549                     u1401:
  4534     0549  2D64               	goto	l1971
  4535     054A                     u1400:
  4536     054A                     l1963:
  4537     054A  3001               	movlw	1
  4538     054B                     u1415:
  4539     054B  35BB               	lslf	___fldiv@rem,f
  4540     054C  0DBC               	rlf	___fldiv@rem+1,f
  4541     054D  0DBD               	rlf	___fldiv@rem+2,f
  4542     054E  0DBE               	rlf	___fldiv@rem+3,f
  4543     054F  0B89               	decfsz	9,f
  4544     0550  2D4B               	goto	u1415
  4545     0551  3001               	movlw	1
  4546     0552                     u1425:
  4547     0552  35B2               	lslf	___fldiv@b,f
  4548     0553  0DB3               	rlf	___fldiv@b+1,f
  4549     0554  0DB4               	rlf	___fldiv@b+2,f
  4550     0555  0DB5               	rlf	___fldiv@b+3,f
  4551     0556  0B89               	decfsz	9,f
  4552     0557  2D52               	goto	u1425
  4553     0558                     l1965:
  4554     0558  1FC5               	btfss	___fldiv@grs+3,7
  4555     0559  2D5B               	goto	u1431
  4556     055A  2D5C               	goto	u1430
  4557     055B                     u1431:
  4558     055B  2D5D               	goto	l1969
  4559     055C                     u1430:
  4560     055C                     l1967:
  4561     055C  1432               	bsf	___fldiv@b,0
  4562     055D                     l1969:
  4563     055D  3001               	movlw	1
  4564     055E                     u1445:
  4565     055E  35C2               	lslf	___fldiv@grs,f
  4566     055F  0DC3               	rlf	___fldiv@grs+1,f
  4567     0560  0DC4               	rlf	___fldiv@grs+2,f
  4568     0561  0DC5               	rlf	___fldiv@grs+3,f
  4569     0562  0B89               	decfsz	9,f
  4570     0563  2D5E               	goto	u1445
  4571     0564                     l1971:
  4572     0564  0831               	movf	___fldiv@a+3,w
  4573     0565  023E               	subwf	___fldiv@rem+3,w
  4574     0566  1D03               	skipz
  4575     0567  2D72               	goto	u1455
  4576     0568  0830               	movf	___fldiv@a+2,w
  4577     0569  023D               	subwf	___fldiv@rem+2,w
  4578     056A  1D03               	skipz
  4579     056B  2D72               	goto	u1455
  4580     056C  082F               	movf	___fldiv@a+1,w
  4581     056D  023C               	subwf	___fldiv@rem+1,w
  4582     056E  1D03               	skipz
  4583     056F  2D72               	goto	u1455
  4584     0570  082E               	movf	___fldiv@a,w
  4585     0571  023B               	subwf	___fldiv@rem,w
  4586     0572                     u1455:
  4587     0572  1C03               	skipc
  4588     0573  2D75               	goto	u1451
  4589     0574  2D76               	goto	u1450
  4590     0575                     u1451:
  4591     0575  2D7F               	goto	l1977
  4592     0576                     u1450:
  4593     0576                     l1973:
  4594     0576  1745               	bsf	___fldiv@grs+3,6
  4595     0577                     l1975:
  4596     0577  082E               	movf	___fldiv@a,w
  4597     0578  02BB               	subwf	___fldiv@rem,f
  4598     0579  082F               	movf	___fldiv@a+1,w
  4599     057A  3BBC               	subwfb	___fldiv@rem+1,f
  4600     057B  0830               	movf	___fldiv@a+2,w
  4601     057C  3BBD               	subwfb	___fldiv@rem+2,f
  4602     057D  0831               	movf	___fldiv@a+3,w
  4603     057E  3BBE               	subwfb	___fldiv@rem+3,f
  4604     057F                     l1977:
  4605     057F  3001               	movlw	1
  4606     0580  00B6               	movwf	??___fldiv
  4607     0581  0836               	movf	??___fldiv,w
  4608     0582  07C7               	addwf	___fldiv@aexp,f
  4609     0583                     l1979:
  4610     0583  301A               	movlw	26
  4611     0584  0247               	subwf	___fldiv@aexp,w
  4612     0585  1C03               	skipc
  4613     0586  2D88               	goto	u1461
  4614     0587  2D89               	goto	u1460
  4615     0588                     u1461:
  4616     0588  2D45               	goto	l1961
  4617     0589                     u1460:
  4618     0589                     l1981:
  4619     0589  083E               	movf	___fldiv@rem+3,w
  4620     058A  043D               	iorwf	___fldiv@rem+2,w
  4621     058B  043C               	iorwf	___fldiv@rem+1,w
  4622     058C  043B               	iorwf	___fldiv@rem,w
  4623     058D  1903               	skipnz
  4624     058E  2D90               	goto	u1471
  4625     058F  2D91               	goto	u1470
  4626     0590                     u1471:
  4627     0590  2DAA               	goto	l1995
  4628     0591                     u1470:
  4629     0591                     l1983:
  4630     0591  1442               	bsf	___fldiv@grs,0
  4631     0592  2DAA               	goto	l1995
  4632     0593                     l1985:
  4633     0593  3001               	movlw	1
  4634     0594                     u1485:
  4635     0594  35B2               	lslf	___fldiv@b,f
  4636     0595  0DB3               	rlf	___fldiv@b+1,f
  4637     0596  0DB4               	rlf	___fldiv@b+2,f
  4638     0597  0DB5               	rlf	___fldiv@b+3,f
  4639     0598  0B89               	decfsz	9,f
  4640     0599  2D94               	goto	u1485
  4641     059A                     l1987:
  4642     059A  1FC5               	btfss	___fldiv@grs+3,7
  4643     059B  2D9D               	goto	u1491
  4644     059C  2D9E               	goto	u1490
  4645     059D                     u1491:
  4646     059D  2D9F               	goto	l1991
  4647     059E                     u1490:
  4648     059E                     l1989:
  4649     059E  1432               	bsf	___fldiv@b,0
  4650     059F                     l1991:
  4651     059F  3001               	movlw	1
  4652     05A0                     u1505:
  4653     05A0  35C2               	lslf	___fldiv@grs,f
  4654     05A1  0DC3               	rlf	___fldiv@grs+1,f
  4655     05A2  0DC4               	rlf	___fldiv@grs+2,f
  4656     05A3  0DC5               	rlf	___fldiv@grs+3,f
  4657     05A4  0B89               	decfsz	9,f
  4658     05A5  2DA0               	goto	u1505
  4659     05A6                     l1993:
  4660     05A6  30FF               	movlw	255
  4661     05A7  07C0               	addwf	___fldiv@new_exp,f
  4662     05A8  30FF               	movlw	255
  4663     05A9  3DC1               	addwfc	___fldiv@new_exp+1,f
  4664     05AA                     l1995:
  4665     05AA  1FB4               	btfss	___fldiv@b+2,7
  4666     05AB  2DAD               	goto	u1511
  4667     05AC  2DAE               	goto	u1510
  4668     05AD                     u1511:
  4669     05AD  2D93               	goto	l1985
  4670     05AE                     u1510:
  4671     05AE                     l1997:
  4672     05AE  01C7               	clrf	___fldiv@aexp
  4673     05AF                     l1999:
  4674     05AF  1FC5               	btfss	___fldiv@grs+3,7
  4675     05B0  2DB2               	goto	u1521
  4676     05B1  2DB3               	goto	u1520
  4677     05B2                     u1521:
  4678     05B2  2DCF               	goto	l2007
  4679     05B3                     u1520:
  4680     05B3                     l2001:
  4681     05B3  30FF               	movlw	255
  4682     05B4  0542               	andwf	___fldiv@grs,w
  4683     05B5  00B6               	movwf	??___fldiv
  4684     05B6  30FF               	movlw	255
  4685     05B7  0543               	andwf	___fldiv@grs+1,w
  4686     05B8  00B7               	movwf	??___fldiv+1
  4687     05B9  30FF               	movlw	255
  4688     05BA  0544               	andwf	___fldiv@grs+2,w
  4689     05BB  00B8               	movwf	??___fldiv+2
  4690     05BC  307F               	movlw	127
  4691     05BD  0545               	andwf	___fldiv@grs+3,w
  4692     05BE  00B9               	movwf	??___fldiv+3
  4693     05BF  0839               	movf	??___fldiv+3,w
  4694     05C0  0438               	iorwf	??___fldiv+2,w
  4695     05C1  0437               	iorwf	??___fldiv+1,w
  4696     05C2  0436               	iorwf	??___fldiv,w
  4697     05C3  1903               	skipnz
  4698     05C4  2DC6               	goto	u1531
  4699     05C5  2DC7               	goto	u1530
  4700     05C6                     u1531:
  4701     05C6  2DCA               	goto	l912
  4702     05C7                     u1530:
  4703     05C7                     l2003:
  4704     05C7  01C7               	clrf	___fldiv@aexp
  4705     05C8  0AC7               	incf	___fldiv@aexp,f
  4706     05C9  2DCF               	goto	l2007
  4707     05CA                     l912:
  4708     05CA  1C32               	btfss	___fldiv@b,0
  4709     05CB  2DCD               	goto	u1541
  4710     05CC  2DCE               	goto	u1540
  4711     05CD                     u1541:
  4712     05CD  2DCF               	goto	l2007
  4713     05CE                     u1540:
  4714     05CE  2DC7               	goto	l2003
  4715     05CF                     l2007:
  4716     05CF  0847               	movf	___fldiv@aexp,w
  4717     05D0  1903               	btfsc	3,2
  4718     05D1  2DD3               	goto	u1551
  4719     05D2  2DD4               	goto	u1550
  4720     05D3                     u1551:
  4721     05D3  2DFC               	goto	l2017
  4722     05D4                     u1550:
  4723     05D4                     l2009:
  4724     05D4  3001               	movlw	1
  4725     05D5  07B2               	addwf	___fldiv@b,f
  4726     05D6  3000               	movlw	0
  4727     05D7  3DB3               	addwfc	___fldiv@b+1,f
  4728     05D8  3000               	movlw	0
  4729     05D9  3DB4               	addwfc	___fldiv@b+2,f
  4730     05DA  3000               	movlw	0
  4731     05DB  3DB5               	addwfc	___fldiv@b+3,f
  4732     05DC                     l2011:
  4733     05DC  1C35               	btfss	___fldiv@b+3,0
  4734     05DD  2DDF               	goto	u1561
  4735     05DE  2DE0               	goto	u1560
  4736     05DF                     u1561:
  4737     05DF  2DFC               	goto	l2017
  4738     05E0                     u1560:
  4739     05E0                     l2013:
  4740     05E0  0832               	movf	___fldiv@b,w
  4741     05E1  00B6               	movwf	??___fldiv
  4742     05E2  0833               	movf	___fldiv@b+1,w
  4743     05E3  00B7               	movwf	??___fldiv+1
  4744     05E4  0834               	movf	___fldiv@b+2,w
  4745     05E5  00B8               	movwf	??___fldiv+2
  4746     05E6  0835               	movf	___fldiv@b+3,w
  4747     05E7  00B9               	movwf	??___fldiv+3
  4748     05E8  3001               	movlw	1
  4749     05E9  00BA               	movwf	??___fldiv+4
  4750     05EA                     u1575:
  4751     05EA  37B9               	asrf	??___fldiv+3,f
  4752     05EB  0CB8               	rrf	??___fldiv+2,f
  4753     05EC  0CB7               	rrf	??___fldiv+1,f
  4754     05ED  0CB6               	rrf	??___fldiv,f
  4755     05EE                     u1570:
  4756     05EE  0BBA               	decfsz	??___fldiv+4,f
  4757     05EF  2DEA               	goto	u1575
  4758     05F0  0839               	movf	??___fldiv+3,w
  4759     05F1  00B5               	movwf	___fldiv@b+3
  4760     05F2  0838               	movf	??___fldiv+2,w
  4761     05F3  00B4               	movwf	___fldiv@b+2
  4762     05F4  0837               	movf	??___fldiv+1,w
  4763     05F5  00B3               	movwf	___fldiv@b+1
  4764     05F6  0836               	movf	??___fldiv,w
  4765     05F7  00B2               	movwf	___fldiv@b
  4766     05F8                     l2015:
  4767     05F8  3001               	movlw	1
  4768     05F9  07C0               	addwf	___fldiv@new_exp,f
  4769     05FA  3000               	movlw	0
  4770     05FB  3DC1               	addwfc	___fldiv@new_exp+1,f
  4771     05FC                     l2017:
  4772     05FC  0841               	movf	___fldiv@new_exp+1,w
  4773     05FD  3A80               	xorlw	128
  4774     05FE  00B6               	movwf	??___fldiv
  4775     05FF  3080               	movlw	128
  4776     0600  0236               	subwf	??___fldiv,w
  4777     0601  1D03               	skipz
  4778     0602  2E05               	goto	u1585
  4779     0603  30FF               	movlw	255
  4780     0604  0240               	subwf	___fldiv@new_exp,w
  4781     0605                     u1585:
  4782     0605  1C03               	skipc
  4783     0606  2E08               	goto	u1581
  4784     0607  2E09               	goto	u1580
  4785     0608                     u1581:
  4786     0608  2E16               	goto	l917
  4787     0609                     u1580:
  4788     0609                     l2019:
  4789     0609  30FF               	movlw	255
  4790     060A  0020               	movlb	0	; select bank0
  4791     060B  00C0               	movwf	___fldiv@new_exp
  4792     060C  3000               	movlw	0
  4793     060D  00C1               	movwf	___fldiv@new_exp+1
  4794     060E  3000               	movlw	0
  4795     060F  00B5               	movwf	___fldiv@b+3
  4796     0610  3000               	movlw	0
  4797     0611  00B4               	movwf	___fldiv@b+2
  4798     0612  3000               	movlw	0
  4799     0613  00B3               	movwf	___fldiv@b+1
  4800     0614  3000               	movlw	0
  4801     0615  00B2               	movwf	___fldiv@b
  4802     0616                     l917:
  4803     0616  0020               	movlb	0	; select bank0
  4804     0617  0841               	movf	___fldiv@new_exp+1,w
  4805     0618  3A80               	xorlw	128
  4806     0619  00B6               	movwf	??___fldiv
  4807     061A  3080               	movlw	128
  4808     061B  0236               	subwf	??___fldiv,w
  4809     061C  1D03               	skipz
  4810     061D  2E20               	goto	u1595
  4811     061E  3001               	movlw	1
  4812     061F  0240               	subwf	___fldiv@new_exp,w
  4813     0620                     u1595:
  4814     0620  1803               	skipnc
  4815     0621  2E23               	goto	u1591
  4816     0622  2E24               	goto	u1590
  4817     0623                     u1591:
  4818     0623  2E30               	goto	l918
  4819     0624                     u1590:
  4820     0624                     l2021:
  4821     0624  0020               	movlb	0	; select bank0
  4822     0625  01C0               	clrf	___fldiv@new_exp
  4823     0626  01C1               	clrf	___fldiv@new_exp+1
  4824     0627                     l2023:
  4825     0627  3000               	movlw	0
  4826     0628  00B5               	movwf	___fldiv@b+3
  4827     0629  3000               	movlw	0
  4828     062A  00B4               	movwf	___fldiv@b+2
  4829     062B  3000               	movlw	0
  4830     062C  00B3               	movwf	___fldiv@b+1
  4831     062D  3000               	movlw	0
  4832     062E  00B2               	movwf	___fldiv@b
  4833     062F                     l2025:
  4834     062F  01BF               	clrf	___fldiv@sign
  4835     0630                     l918:
  4836     0630  0020               	movlb	0	; select bank0
  4837     0631  0840               	movf	___fldiv@new_exp,w
  4838     0632  00C6               	movwf	___fldiv@bexp
  4839     0633                     l2027:
  4840     0633  1C46               	btfss	___fldiv@bexp,0
  4841     0634  2E36               	goto	u1601
  4842     0635  2E37               	goto	u1600
  4843     0636                     u1601:
  4844     0636  2E39               	goto	l2031
  4845     0637                     u1600:
  4846     0637                     l2029:
  4847     0637  17B4               	bsf	___fldiv@b+2,7
  4848     0638  2E3D               	goto	l920
  4849     0639                     l2031:
  4850     0639  307F               	movlw	127
  4851     063A  00B6               	movwf	??___fldiv
  4852     063B  0836               	movf	??___fldiv,w
  4853     063C  05B4               	andwf	___fldiv@b+2,f
  4854     063D                     l920:
  4855     063D  3646               	lsrf	___fldiv@bexp,w
  4856     063E  00B5               	movwf	___fldiv@b+3
  4857     063F  083F               	movf	___fldiv@sign,w
  4858     0640  00B6               	movwf	??___fldiv
  4859     0641  0836               	movf	??___fldiv,w
  4860     0642  04B5               	iorwf	___fldiv@b+3,f
  4861     0643  2D04               	goto	l1941
  4862     0644                     l898:
  4863     0644  0008               	return
  4864     0645                     __end_of___fldiv:
  4865                           
  4866                           	psect	text6
  4867     0FC6                     __ptext6:	
  4868 ;; *************** function _SYSTEM_Initialize *****************
  4869 ;; Defined at:
  4870 ;;		line 50 in file "mcc_generated_files/mcc.c"
  4871 ;; Parameters:    Size  Location     Type
  4872 ;;		None
  4873 ;; Auto vars:     Size  Location     Type
  4874 ;;		None
  4875 ;; Return value:  Size  Location     Type
  4876 ;;                  1    wreg      void 
  4877 ;; Registers used:
  4878 ;;		wreg, status,2, status,0, pclath, cstack
  4879 ;; Tracked objects:
  4880 ;;		On entry : 0/0
  4881 ;;		On exit  : 0/0
  4882 ;;		Unchanged: 0/0
  4883 ;; Data sizes:     COMMON   BANK0   BANK1   BANK2   BANK3   BANK4
  4884 ;;      Params:         0       0       0       0       0       0
  4885 ;;      Locals:         0       0       0       0       0       0
  4886 ;;      Temps:          0       0       0       0       0       0
  4887 ;;      Totals:         0       0       0       0       0       0
  4888 ;;Total ram usage:        0 bytes
  4889 ;; Hardware stack levels used: 1
  4890 ;; Hardware stack levels required when called: 7
  4891 ;; This function calls:
  4892 ;;		_ADC_Initialize
  4893 ;;		_EPWM2_Initialize
  4894 ;;		_EUSART_Initialize
  4895 ;;		_FVR_Initialize
  4896 ;;		_OSCILLATOR_Initialize
  4897 ;;		_PIN_MANAGER_Initialize
  4898 ;;		_TMR1_Initialize
  4899 ;;		_TMR2_Initialize
  4900 ;;		_WDT_Initialize
  4901 ;; This function is called by:
  4902 ;;		_main
  4903 ;; This function uses a non-reentrant model
  4904 ;;
  4905                           
  4906     0FC6                     _SYSTEM_Initialize:	
  4907                           ;psect for function _SYSTEM_Initialize
  4908                           
  4909     0FC6                     l1835:	
  4910                           ;incstack = 0
  4911                           ; Regs used in _SYSTEM_Initialize: [wreg+status,2+status,0+pclath+cstack]
  4912                           
  4913                           
  4914                           ;mcc_generated_files/mcc.c: 53:     PIN_MANAGER_Initialize();
  4915     0FC6  318F  277A  318F   	fcall	_PIN_MANAGER_Initialize
  4916                           
  4917                           ;mcc_generated_files/mcc.c: 54:     OSCILLATOR_Initialize();
  4918     0FC9  318F  2734  318F   	fcall	_OSCILLATOR_Initialize
  4919                           
  4920                           ;mcc_generated_files/mcc.c: 55:     WDT_Initialize();
  4921     0FCC  318E  26F3  318F   	fcall	_WDT_Initialize
  4922                           
  4923                           ;mcc_generated_files/mcc.c: 56:     FVR_Initialize();
  4924     0FCF  318E  26EF  318F   	fcall	_FVR_Initialize
  4925                           
  4926                           ;mcc_generated_files/mcc.c: 57:     EPWM2_Initialize();
  4927     0FD2  318F  274D  318F   	fcall	_EPWM2_Initialize
  4928                           
  4929                           ;mcc_generated_files/mcc.c: 58:     ADC_Initialize();
  4930     0FD5  318F  271A  318F   	fcall	_ADC_Initialize
  4931                           
  4932                           ;mcc_generated_files/mcc.c: 59:     TMR2_Initialize();
  4933     0FD8  318F  2722  318F   	fcall	_TMR2_Initialize
  4934                           
  4935                           ;mcc_generated_files/mcc.c: 60:     TMR1_Initialize();
  4936     0FDB  318F  2792  318F   	fcall	_TMR1_Initialize
  4937                           
  4938                           ;mcc_generated_files/mcc.c: 61:     EUSART_Initialize();
  4939     0FDE  3187  27BE  318F   	fcall	_EUSART_Initialize
  4940     0FE1                     l129:
  4941     0FE1  0008               	return
  4942     0FE2                     __end_of_SYSTEM_Initialize:
  4943                           
  4944                           	psect	text7
  4945     0EF3                     __ptext7:	
  4946 ;; *************** function _WDT_Initialize *****************
  4947 ;; Defined at:
  4948 ;;		line 78 in file "mcc_generated_files/mcc.c"
  4949 ;; Parameters:    Size  Location     Type
  4950 ;;		None
  4951 ;; Auto vars:     Size  Location     Type
  4952 ;;		None
  4953 ;; Return value:  Size  Location     Type
  4954 ;;                  1    wreg      void 
  4955 ;; Registers used:
  4956 ;;		wreg
  4957 ;; Tracked objects:
  4958 ;;		On entry : 0/0
  4959 ;;		On exit  : 0/0
  4960 ;;		Unchanged: 0/0
  4961 ;; Data sizes:     COMMON   BANK0   BANK1   BANK2   BANK3   BANK4
  4962 ;;      Params:         0       0       0       0       0       0
  4963 ;;      Locals:         0       0       0       0       0       0
  4964 ;;      Temps:          0       0       0       0       0       0
  4965 ;;      Totals:         0       0       0       0       0       0
  4966 ;;Total ram usage:        0 bytes
  4967 ;; Hardware stack levels used: 1
  4968 ;; Hardware stack levels required when called: 5
  4969 ;; This function calls:
  4970 ;;		Nothing
  4971 ;; This function is called by:
  4972 ;;		_SYSTEM_Initialize
  4973 ;; This function uses a non-reentrant model
  4974 ;;
  4975                           
  4976     0EF3                     _WDT_Initialize:	
  4977                           ;psect for function _WDT_Initialize
  4978                           
  4979     0EF3                     l1741:	
  4980                           ;incstack = 0
  4981                           ; Regs used in _WDT_Initialize: [wreg]
  4982                           
  4983                           
  4984                           ;mcc_generated_files/mcc.c: 81:     WDTCON = 0x16;
  4985     0EF3  3016               	movlw	22
  4986     0EF4  0021               	movlb	1	; select bank1
  4987     0EF5  0097               	movwf	23	;volatile
  4988     0EF6                     l138:
  4989     0EF6  0008               	return
  4990     0EF7                     __end_of_WDT_Initialize:
  4991                           
  4992                           	psect	text8
  4993     0F22                     __ptext8:	
  4994 ;; *************** function _TMR2_Initialize *****************
  4995 ;; Defined at:
  4996 ;;		line 62 in file "mcc_generated_files/tmr2.c"
  4997 ;; Parameters:    Size  Location     Type
  4998 ;;		None
  4999 ;; Auto vars:     Size  Location     Type
  5000 ;;		None
  5001 ;; Return value:  Size  Location     Type
  5002 ;;                  1    wreg      void 
  5003 ;; Registers used:
  5004 ;;		wreg, status,2
  5005 ;; Tracked objects:
  5006 ;;		On entry : 0/0
  5007 ;;		On exit  : 0/0
  5008 ;;		Unchanged: 0/0
  5009 ;; Data sizes:     COMMON   BANK0   BANK1   BANK2   BANK3   BANK4
  5010 ;;      Params:         0       0       0       0       0       0
  5011 ;;      Locals:         0       0       0       0       0       0
  5012 ;;      Temps:          0       0       0       0       0       0
  5013 ;;      Totals:         0       0       0       0       0       0
  5014 ;;Total ram usage:        0 bytes
  5015 ;; Hardware stack levels used: 1
  5016 ;; Hardware stack levels required when called: 5
  5017 ;; This function calls:
  5018 ;;		Nothing
  5019 ;; This function is called by:
  5020 ;;		_SYSTEM_Initialize
  5021 ;; This function uses a non-reentrant model
  5022 ;;
  5023                           
  5024     0F22                     _TMR2_Initialize:	
  5025                           ;psect for function _TMR2_Initialize
  5026                           
  5027     0F22                     l1763:	
  5028                           ;incstack = 0
  5029                           ; Regs used in _TMR2_Initialize: [wreg+status,2]
  5030                           
  5031                           
  5032                           ;mcc_generated_files/tmr2.c: 67:     PR2 = 0xFF;
  5033     0F22  30FF               	movlw	255
  5034     0F23  0020               	movlb	0	; select bank0
  5035     0F24  009B               	movwf	27	;volatile
  5036     0F25                     l1765:
  5037                           
  5038                           ;mcc_generated_files/tmr2.c: 70:     TMR2 = 0x00;
  5039     0F25  019A               	clrf	26	;volatile
  5040     0F26                     l1767:
  5041                           
  5042                           ;mcc_generated_files/tmr2.c: 73:     PIR1bits.TMR2IF = 0;
  5043     0F26  1091               	bcf	17,1	;volatile
  5044     0F27                     l1769:
  5045                           
  5046                           ;mcc_generated_files/tmr2.c: 76:     T2CON = 0x05;
  5047     0F27  3005               	movlw	5
  5048     0F28  009C               	movwf	28	;volatile
  5049     0F29                     l285:
  5050     0F29  0008               	return
  5051     0F2A                     __end_of_TMR2_Initialize:
  5052                           
  5053                           	psect	text9
  5054     0F92                     __ptext9:	
  5055 ;; *************** function _TMR1_Initialize *****************
  5056 ;; Defined at:
  5057 ;;		line 64 in file "mcc_generated_files/tmr1.c"
  5058 ;; Parameters:    Size  Location     Type
  5059 ;;		None
  5060 ;; Auto vars:     Size  Location     Type
  5061 ;;		None
  5062 ;; Return value:  Size  Location     Type
  5063 ;;                  1    wreg      void 
  5064 ;; Registers used:
  5065 ;;		wreg, status,2, status,0, pclath, cstack
  5066 ;; Tracked objects:
  5067 ;;		On entry : 0/0
  5068 ;;		On exit  : 0/0
  5069 ;;		Unchanged: 0/0
  5070 ;; Data sizes:     COMMON   BANK0   BANK1   BANK2   BANK3   BANK4
  5071 ;;      Params:         0       0       0       0       0       0
  5072 ;;      Locals:         0       0       0       0       0       0
  5073 ;;      Temps:          0       0       0       0       0       0
  5074 ;;      Totals:         0       0       0       0       0       0
  5075 ;;Total ram usage:        0 bytes
  5076 ;; Hardware stack levels used: 1
  5077 ;; Hardware stack levels required when called: 6
  5078 ;; This function calls:
  5079 ;;		_TMR1_SetInterruptHandler
  5080 ;; This function is called by:
  5081 ;;		_SYSTEM_Initialize
  5082 ;; This function uses a non-reentrant model
  5083 ;;
  5084                           
  5085     0F92                     _TMR1_Initialize:	
  5086                           ;psect for function _TMR1_Initialize
  5087                           
  5088     0F92                     l1771:	
  5089                           ;incstack = 0
  5090                           ; Regs used in _TMR1_Initialize: [wreg+status,2+status,0+pclath+cstack]
  5091                           
  5092                           
  5093                           ;mcc_generated_files/tmr1.c: 69:     T1GCON = 0x00;
  5094     0F92  0020               	movlb	0	; select bank0
  5095     0F93  0199               	clrf	25	;volatile
  5096     0F94                     l1773:
  5097                           
  5098                           ;mcc_generated_files/tmr1.c: 72:     TMR1H = 0x63;
  5099     0F94  3063               	movlw	99
  5100     0F95  0097               	movwf	23	;volatile
  5101     0F96                     l1775:
  5102                           
  5103                           ;mcc_generated_files/tmr1.c: 75:     TMR1L = 0xC0;
  5104     0F96  30C0               	movlw	192
  5105     0F97  0096               	movwf	22	;volatile
  5106     0F98                     l1777:
  5107                           
  5108                           ;mcc_generated_files/tmr1.c: 78:     PIR1bits.TMR1IF = 0;
  5109     0F98  1011               	bcf	17,0	;volatile
  5110     0F99                     l1779:
  5111                           
  5112                           ;mcc_generated_files/tmr1.c: 81:     timer1ReloadVal=(uint16_t)((TMR1H << 8) | TMR1L);
  5113     0F99  0817               	movf	23,w	;volatile
  5114     0F9A  00F7               	movwf	_timer1ReloadVal+1	;volatile
  5115     0F9B  0816               	movf	22,w	;volatile
  5116     0F9C  00F6               	movwf	_timer1ReloadVal	;volatile
  5117     0F9D                     l1781:
  5118                           
  5119                           ;mcc_generated_files/tmr1.c: 84:     PIE1bits.TMR1IE = 1;
  5120     0F9D  0021               	movlb	1	; select bank1
  5121     0F9E  1411               	bsf	17,0	;volatile
  5122     0F9F                     l1783:
  5123                           
  5124                           ;mcc_generated_files/tmr1.c: 87:     TMR1_SetInterruptHandler(TMR1_DefaultInterruptHandl
      +                          er);
  5125     0F9F  30FE               	movlw	low _TMR1_DefaultInterruptHandler
  5126     0FA0  00F4               	movwf	TMR1_SetInterruptHandler@InterruptHandler
  5127     0FA1  3007               	movlw	high _TMR1_DefaultInterruptHandler
  5128     0FA2  00F5               	movwf	TMR1_SetInterruptHandler@InterruptHandler+1
  5129     0FA3  318F  270E  318F   	fcall	_TMR1_SetInterruptHandler
  5130     0FA6                     l1785:
  5131                           
  5132                           ;mcc_generated_files/tmr1.c: 90:     T1CON = 0x01;
  5133     0FA6  3001               	movlw	1
  5134     0FA7  0020               	movlb	0	; select bank0
  5135     0FA8  0098               	movwf	24	;volatile
  5136     0FA9                     l350:
  5137     0FA9  0008               	return
  5138     0FAA                     __end_of_TMR1_Initialize:
  5139                           
  5140                           	psect	text10
  5141     0F0E                     __ptext10:	
  5142 ;; *************** function _TMR1_SetInterruptHandler *****************
  5143 ;; Defined at:
  5144 ;;		line 185 in file "mcc_generated_files/tmr1.c"
  5145 ;; Parameters:    Size  Location     Type
  5146 ;;  InterruptHan    2    4[COMMON] PTR FTN()void 
  5147 ;;		 -> TMR1_DefaultInterruptHandler(1), enviar_tx(1), 
  5148 ;; Auto vars:     Size  Location     Type
  5149 ;;		None
  5150 ;; Return value:  Size  Location     Type
  5151 ;;                  1    wreg      void 
  5152 ;; Registers used:
  5153 ;;		wreg
  5154 ;; Tracked objects:
  5155 ;;		On entry : 0/0
  5156 ;;		On exit  : 0/0
  5157 ;;		Unchanged: 0/0
  5158 ;; Data sizes:     COMMON   BANK0   BANK1   BANK2   BANK3   BANK4
  5159 ;;      Params:         2       0       0       0       0       0
  5160 ;;      Locals:         0       0       0       0       0       0
  5161 ;;      Temps:          0       0       0       0       0       0
  5162 ;;      Totals:         2       0       0       0       0       0
  5163 ;;Total ram usage:        2 bytes
  5164 ;; Hardware stack levels used: 1
  5165 ;; Hardware stack levels required when called: 5
  5166 ;; This function calls:
  5167 ;;		Nothing
  5168 ;; This function is called by:
  5169 ;;		_main
  5170 ;;		_TMR1_Initialize
  5171 ;; This function uses a non-reentrant model
  5172 ;;
  5173                           
  5174     0F0E                     _TMR1_SetInterruptHandler:	
  5175                           ;psect for function _TMR1_SetInterruptHandler
  5176                           
  5177     0F0E                     l1705:	
  5178                           ;incstack = 0
  5179                           ; Regs used in _TMR1_SetInterruptHandler: [wreg]
  5180                           
  5181                           
  5182                           ;mcc_generated_files/tmr1.c: 186:     TMR1_InterruptHandler = InterruptHandler;
  5183     0F0E  0875               	movf	TMR1_SetInterruptHandler@InterruptHandler+1,w
  5184     0F0F  0020               	movlb	0	; select bank0
  5185     0F10  00EF               	movwf	_TMR1_InterruptHandler+1
  5186     0F11  0874               	movf	TMR1_SetInterruptHandler@InterruptHandler,w
  5187     0F12  00EE               	movwf	_TMR1_InterruptHandler
  5188     0F13                     l386:
  5189     0F13  0008               	return
  5190     0F14                     __end_of_TMR1_SetInterruptHandler:
  5191                           
  5192                           	psect	text11
  5193     0F7A                     __ptext11:	
  5194 ;; *************** function _PIN_MANAGER_Initialize *****************
  5195 ;; Defined at:
  5196 ;;		line 55 in file "mcc_generated_files/pin_manager.c"
  5197 ;; Parameters:    Size  Location     Type
  5198 ;;		None
  5199 ;; Auto vars:     Size  Location     Type
  5200 ;;		None
  5201 ;; Return value:  Size  Location     Type
  5202 ;;                  1    wreg      void 
  5203 ;; Registers used:
  5204 ;;		wreg, status,2
  5205 ;; Tracked objects:
  5206 ;;		On entry : 0/0
  5207 ;;		On exit  : 0/0
  5208 ;;		Unchanged: 0/0
  5209 ;; Data sizes:     COMMON   BANK0   BANK1   BANK2   BANK3   BANK4
  5210 ;;      Params:         0       0       0       0       0       0
  5211 ;;      Locals:         0       0       0       0       0       0
  5212 ;;      Temps:          0       0       0       0       0       0
  5213 ;;      Totals:         0       0       0       0       0       0
  5214 ;;Total ram usage:        0 bytes
  5215 ;; Hardware stack levels used: 1
  5216 ;; Hardware stack levels required when called: 5
  5217 ;; This function calls:
  5218 ;;		Nothing
  5219 ;; This function is called by:
  5220 ;;		_SYSTEM_Initialize
  5221 ;; This function uses a non-reentrant model
  5222 ;;
  5223                           
  5224     0F7A                     _PIN_MANAGER_Initialize:	
  5225                           ;psect for function _PIN_MANAGER_Initialize
  5226                           
  5227     0F7A                     l1719:	
  5228                           ;incstack = 0
  5229                           ; Regs used in _PIN_MANAGER_Initialize: [wreg+status,2]
  5230                           
  5231                           
  5232                           ;mcc_generated_files/pin_manager.c: 60:     LATA = 0x00;
  5233     0F7A  0022               	movlb	2	; select bank2
  5234     0F7B  018C               	clrf	12	;volatile
  5235                           
  5236                           ;mcc_generated_files/pin_manager.c: 61:     LATB = 0x00;
  5237     0F7C  018D               	clrf	13	;volatile
  5238     0F7D                     l1721:
  5239                           
  5240                           ;mcc_generated_files/pin_manager.c: 66:     TRISA = 0x7F;
  5241     0F7D  307F               	movlw	127
  5242     0F7E  0021               	movlb	1	; select bank1
  5243     0F7F  008C               	movwf	12	;volatile
  5244     0F80                     l1723:
  5245                           
  5246                           ;mcc_generated_files/pin_manager.c: 67:     TRISB = 0xFF;
  5247     0F80  30FF               	movlw	255
  5248     0F81  008D               	movwf	13	;volatile
  5249     0F82                     l1725:
  5250                           
  5251                           ;mcc_generated_files/pin_manager.c: 72:     ANSELB = 0xDA;
  5252     0F82  30DA               	movlw	218
  5253     0F83  0023               	movlb	3	; select bank3
  5254     0F84  008D               	movwf	13	;volatile
  5255     0F85                     l1727:
  5256                           
  5257                           ;mcc_generated_files/pin_manager.c: 73:     ANSELA = 0x1F;
  5258     0F85  301F               	movlw	31
  5259     0F86  008C               	movwf	12	;volatile
  5260                           
  5261                           ;mcc_generated_files/pin_manager.c: 78:     WPUB = 0x00;
  5262     0F87  0024               	movlb	4	; select bank4
  5263     0F88  018D               	clrf	13	;volatile
  5264                           
  5265                           ;mcc_generated_files/pin_manager.c: 79:     WPUA = 0x00;
  5266     0F89  018C               	clrf	12	;volatile
  5267     0F8A                     l1729:
  5268                           
  5269                           ;mcc_generated_files/pin_manager.c: 80:     OPTION_REGbits.nWPUEN = 1;
  5270     0F8A  0021               	movlb	1	; select bank1
  5271     0F8B  1795               	bsf	21,7	;volatile
  5272     0F8C                     l1731:
  5273                           
  5274                           ;mcc_generated_files/pin_manager.c: 86:     APFCON0 = 0x88;
  5275     0F8C  3088               	movlw	136
  5276     0F8D  0022               	movlb	2	; select bank2
  5277     0F8E  009D               	movwf	29	;volatile
  5278     0F8F                     l1733:
  5279                           
  5280                           ;mcc_generated_files/pin_manager.c: 87:     APFCON1 = 0x01;
  5281     0F8F  3001               	movlw	1
  5282     0F90  009E               	movwf	30	;volatile
  5283     0F91                     l201:
  5284     0F91  0008               	return
  5285     0F92                     __end_of_PIN_MANAGER_Initialize:
  5286                           
  5287                           	psect	text12
  5288     0F34                     __ptext12:	
  5289 ;; *************** function _OSCILLATOR_Initialize *****************
  5290 ;; Defined at:
  5291 ;;		line 64 in file "mcc_generated_files/mcc.c"
  5292 ;; Parameters:    Size  Location     Type
  5293 ;;		None
  5294 ;; Auto vars:     Size  Location     Type
  5295 ;;		None
  5296 ;; Return value:  Size  Location     Type
  5297 ;;                  1    wreg      void 
  5298 ;; Registers used:
  5299 ;;		wreg, status,2
  5300 ;; Tracked objects:
  5301 ;;		On entry : 0/0
  5302 ;;		On exit  : 0/0
  5303 ;;		Unchanged: 0/0
  5304 ;; Data sizes:     COMMON   BANK0   BANK1   BANK2   BANK3   BANK4
  5305 ;;      Params:         0       0       0       0       0       0
  5306 ;;      Locals:         0       0       0       0       0       0
  5307 ;;      Temps:          0       0       0       0       0       0
  5308 ;;      Totals:         0       0       0       0       0       0
  5309 ;;Total ram usage:        0 bytes
  5310 ;; Hardware stack levels used: 1
  5311 ;; Hardware stack levels required when called: 5
  5312 ;; This function calls:
  5313 ;;		Nothing
  5314 ;; This function is called by:
  5315 ;;		_SYSTEM_Initialize
  5316 ;; This function uses a non-reentrant model
  5317 ;;
  5318                           
  5319     0F34                     _OSCILLATOR_Initialize:	
  5320                           ;psect for function _OSCILLATOR_Initialize
  5321                           
  5322     0F34                     l1735:	
  5323                           ;incstack = 0
  5324                           ; Regs used in _OSCILLATOR_Initialize: [wreg+status,2]
  5325                           
  5326                           
  5327                           ;mcc_generated_files/mcc.c: 67:     OSCCON = 0x70;
  5328     0F34  3070               	movlw	112
  5329     0F35  0021               	movlb	1	; select bank1
  5330     0F36  0099               	movwf	25	;volatile
  5331     0F37                     l1737:
  5332                           
  5333                           ;mcc_generated_files/mcc.c: 69:     OSCTUNE = 0x00;
  5334     0F37  0198               	clrf	24	;volatile
  5335     0F38                     l1739:
  5336                           
  5337                           ;mcc_generated_files/mcc.c: 71:     BORCON = 0x00;
  5338     0F38  0022               	movlb	2	; select bank2
  5339     0F39  0196               	clrf	22	;volatile
  5340     0F3A                     l132:	
  5341                           ;mcc_generated_files/mcc.c: 74:     {;mcc_generated_files/mcc.c: 75:     }
  5342                           
  5343                           
  5344                           ;mcc_generated_files/mcc.c: 73:     while(PLLR == 0)
  5345     0F3A  0021               	movlb	1	; select bank1
  5346     0F3B  1F1A               	btfss	26,6	;volatile
  5347     0F3C  2F3E               	goto	u1111
  5348     0F3D  2F3F               	goto	u1110
  5349     0F3E                     u1111:
  5350     0F3E  2F3A               	goto	l132
  5351     0F3F                     u1110:
  5352     0F3F                     l135:
  5353     0F3F  0008               	return
  5354     0F40                     __end_of_OSCILLATOR_Initialize:
  5355                           
  5356                           	psect	text13
  5357     0EEF                     __ptext13:	
  5358 ;; *************** function _FVR_Initialize *****************
  5359 ;; Defined at:
  5360 ;;		line 58 in file "mcc_generated_files/fvr.c"
  5361 ;; Parameters:    Size  Location     Type
  5362 ;;		None
  5363 ;; Auto vars:     Size  Location     Type
  5364 ;;		None
  5365 ;; Return value:  Size  Location     Type
  5366 ;;                  1    wreg      void 
  5367 ;; Registers used:
  5368 ;;		wreg
  5369 ;; Tracked objects:
  5370 ;;		On entry : 0/0
  5371 ;;		On exit  : 0/0
  5372 ;;		Unchanged: 0/0
  5373 ;; Data sizes:     COMMON   BANK0   BANK1   BANK2   BANK3   BANK4
  5374 ;;      Params:         0       0       0       0       0       0
  5375 ;;      Locals:         0       0       0       0       0       0
  5376 ;;      Temps:          0       0       0       0       0       0
  5377 ;;      Totals:         0       0       0       0       0       0
  5378 ;;Total ram usage:        0 bytes
  5379 ;; Hardware stack levels used: 1
  5380 ;; Hardware stack levels required when called: 5
  5381 ;; This function calls:
  5382 ;;		Nothing
  5383 ;; This function is called by:
  5384 ;;		_SYSTEM_Initialize
  5385 ;; This function uses a non-reentrant model
  5386 ;;
  5387                           
  5388     0EEF                     _FVR_Initialize:	
  5389                           ;psect for function _FVR_Initialize
  5390                           
  5391     0EEF                     l1707:	
  5392                           ;incstack = 0
  5393                           ; Regs used in _FVR_Initialize: [wreg]
  5394                           
  5395                           
  5396                           ;mcc_generated_files/fvr.c: 61:     FVRCON = 0x8B;
  5397     0EEF  308B               	movlw	139
  5398     0EF0  0022               	movlb	2	; select bank2
  5399     0EF1  0097               	movwf	23	;volatile
  5400     0EF2                     l7:
  5401     0EF2  0008               	return
  5402     0EF3                     __end_of_FVR_Initialize:
  5403                           
  5404                           	psect	text14
  5405     07BE                     __ptext14:	
  5406 ;; *************** function _EUSART_Initialize *****************
  5407 ;; Defined at:
  5408 ;;		line 66 in file "mcc_generated_files/eusart.c"
  5409 ;; Parameters:    Size  Location     Type
  5410 ;;		None
  5411 ;; Auto vars:     Size  Location     Type
  5412 ;;		None
  5413 ;; Return value:  Size  Location     Type
  5414 ;;                  1    wreg      void 
  5415 ;; Registers used:
  5416 ;;		wreg, status,2, status,0, pclath, cstack
  5417 ;; Tracked objects:
  5418 ;;		On entry : 0/0
  5419 ;;		On exit  : 0/0
  5420 ;;		Unchanged: 0/0
  5421 ;; Data sizes:     COMMON   BANK0   BANK1   BANK2   BANK3   BANK4
  5422 ;;      Params:         0       0       0       0       0       0
  5423 ;;      Locals:         0       0       0       0       0       0
  5424 ;;      Temps:          0       0       0       0       0       0
  5425 ;;      Totals:         0       0       0       0       0       0
  5426 ;;Total ram usage:        0 bytes
  5427 ;; Hardware stack levels used: 1
  5428 ;; Hardware stack levels required when called: 6
  5429 ;; This function calls:
  5430 ;;		_EUSART_SetErrorHandler
  5431 ;;		_EUSART_SetFramingErrorHandler
  5432 ;;		_EUSART_SetOverrunErrorHandler
  5433 ;; This function is called by:
  5434 ;;		_SYSTEM_Initialize
  5435 ;; This function uses a non-reentrant model
  5436 ;;
  5437                           
  5438     07BE                     _EUSART_Initialize:	
  5439                           ;psect for function _EUSART_Initialize
  5440                           
  5441     07BE                     l1709:	
  5442                           ;incstack = 0
  5443                           ; Regs used in _EUSART_Initialize: [wreg+status,2+status,0+pclath+cstack]
  5444                           
  5445                           
  5446                           ;mcc_generated_files/eusart.c: 71:     BAUDCON = 0x08;
  5447     07BE  3008               	movlw	8
  5448     07BF  0023               	movlb	3	; select bank3
  5449     07C0  009F               	movwf	31	;volatile
  5450                           
  5451                           ;mcc_generated_files/eusart.c: 74:     RCSTA = 0x90;
  5452     07C1  3090               	movlw	144
  5453     07C2  009D               	movwf	29	;volatile
  5454                           
  5455                           ;mcc_generated_files/eusart.c: 77:     TXSTA = 0x24;
  5456     07C3  3024               	movlw	36
  5457     07C4  009E               	movwf	30	;volatile
  5458                           
  5459                           ;mcc_generated_files/eusart.c: 80:     SPBRGL = 0xA0;
  5460     07C5  30A0               	movlw	160
  5461     07C6  009B               	movwf	27	;volatile
  5462                           
  5463                           ;mcc_generated_files/eusart.c: 83:     SPBRGH = 0x01;
  5464     07C7  3001               	movlw	1
  5465     07C8  009C               	movwf	28	;volatile
  5466     07C9                     l1711:
  5467                           
  5468                           ;mcc_generated_files/eusart.c: 86:     EUSART_SetFramingErrorHandler(EUSART_DefaultFrami
      +                          ngErrorHandler);
  5469     07C9  3000               	movlw	0
  5470     07CA  00F4               	movwf	EUSART_SetFramingErrorHandler@interruptHandler
  5471     07CB  3000               	movlw	0
  5472     07CC  00F5               	movwf	EUSART_SetFramingErrorHandler@interruptHandler+1
  5473     07CD  318F  2702  3187   	fcall	_EUSART_SetFramingErrorHandler
  5474     07D0                     l1713:
  5475                           
  5476                           ;mcc_generated_files/eusart.c: 87:     EUSART_SetOverrunErrorHandler(EUSART_DefaultOverr
      +                          unErrorHandler);
  5477     07D0  3000               	movlw	0
  5478     07D1  00F4               	movwf	EUSART_SetOverrunErrorHandler@interruptHandler
  5479     07D2  3000               	movlw	0
  5480     07D3  00F5               	movwf	EUSART_SetOverrunErrorHandler@interruptHandler+1
  5481     07D4  318F  2708  3187   	fcall	_EUSART_SetOverrunErrorHandler
  5482     07D7                     l1715:
  5483                           
  5484                           ;mcc_generated_files/eusart.c: 88:     EUSART_SetErrorHandler(EUSART_DefaultErrorHandler
      +                          );
  5485     07D7  3000               	movlw	0
  5486     07D8  00F4               	movwf	EUSART_SetErrorHandler@interruptHandler
  5487     07D9  3000               	movlw	0
  5488     07DA  00F5               	movwf	EUSART_SetErrorHandler@interruptHandler+1
  5489     07DB  318E  26FC  3187   	fcall	_EUSART_SetErrorHandler
  5490     07DE                     l1717:
  5491                           
  5492                           ;mcc_generated_files/eusart.c: 90:     eusartRxLastError.status = 0;
  5493     07DE  01F9               	clrf	_eusartRxLastError	;volatile
  5494     07DF                     l53:
  5495     07DF  0008               	return
  5496     07E0                     __end_of_EUSART_Initialize:
  5497                           
  5498                           	psect	text15
  5499     0F08                     __ptext15:	
  5500 ;; *************** function _EUSART_SetOverrunErrorHandler *****************
  5501 ;; Defined at:
  5502 ;;		line 161 in file "mcc_generated_files/eusart.c"
  5503 ;; Parameters:    Size  Location     Type
  5504 ;;  interruptHan    2    4[COMMON] PTR FTN()void 
  5505 ;;		 -> EUSART_DefaultOverrunErrorHandler(1), 
  5506 ;; Auto vars:     Size  Location     Type
  5507 ;;		None
  5508 ;; Return value:  Size  Location     Type
  5509 ;;                  1    wreg      void 
  5510 ;; Registers used:
  5511 ;;		wreg
  5512 ;; Tracked objects:
  5513 ;;		On entry : 0/0
  5514 ;;		On exit  : 0/0
  5515 ;;		Unchanged: 0/0
  5516 ;; Data sizes:     COMMON   BANK0   BANK1   BANK2   BANK3   BANK4
  5517 ;;      Params:         2       0       0       0       0       0
  5518 ;;      Locals:         0       0       0       0       0       0
  5519 ;;      Temps:          0       0       0       0       0       0
  5520 ;;      Totals:         2       0       0       0       0       0
  5521 ;;Total ram usage:        2 bytes
  5522 ;; Hardware stack levels used: 1
  5523 ;; Hardware stack levels required when called: 5
  5524 ;; This function calls:
  5525 ;;		Nothing
  5526 ;; This function is called by:
  5527 ;;		_EUSART_Initialize
  5528 ;; This function uses a non-reentrant model
  5529 ;;
  5530                           
  5531     0F08                     _EUSART_SetOverrunErrorHandler:	
  5532                           ;psect for function _EUSART_SetOverrunErrorHandler
  5533                           
  5534     0F08                     l1683:	
  5535                           ;incstack = 0
  5536                           ; Regs used in _EUSART_SetOverrunErrorHandler: [wreg]
  5537                           
  5538                           
  5539                           ;mcc_generated_files/eusart.c: 162:     EUSART_OverrunErrorHandler = interruptHandler;
  5540     0F08  0875               	movf	EUSART_SetOverrunErrorHandler@interruptHandler+1,w
  5541     0F09  0021               	movlb	1	; select bank1
  5542     0F0A  00C8               	movwf	(_EUSART_OverrunErrorHandler+1)^(0+128)
  5543     0F0B  0874               	movf	EUSART_SetOverrunErrorHandler@interruptHandler,w
  5544     0F0C  00C7               	movwf	_EUSART_OverrunErrorHandler^(0+128)
  5545     0F0D                     l95:
  5546     0F0D  0008               	return
  5547     0F0E                     __end_of_EUSART_SetOverrunErrorHandler:
  5548                           
  5549                           	psect	text16
  5550     0F02                     __ptext16:	
  5551 ;; *************** function _EUSART_SetFramingErrorHandler *****************
  5552 ;; Defined at:
  5553 ;;		line 157 in file "mcc_generated_files/eusart.c"
  5554 ;; Parameters:    Size  Location     Type
  5555 ;;  interruptHan    2    4[COMMON] PTR FTN()void 
  5556 ;;		 -> EUSART_DefaultFramingErrorHandler(1), 
  5557 ;; Auto vars:     Size  Location     Type
  5558 ;;		None
  5559 ;; Return value:  Size  Location     Type
  5560 ;;                  1    wreg      void 
  5561 ;; Registers used:
  5562 ;;		wreg
  5563 ;; Tracked objects:
  5564 ;;		On entry : 0/0
  5565 ;;		On exit  : 0/0
  5566 ;;		Unchanged: 0/0
  5567 ;; Data sizes:     COMMON   BANK0   BANK1   BANK2   BANK3   BANK4
  5568 ;;      Params:         2       0       0       0       0       0
  5569 ;;      Locals:         0       0       0       0       0       0
  5570 ;;      Temps:          0       0       0       0       0       0
  5571 ;;      Totals:         2       0       0       0       0       0
  5572 ;;Total ram usage:        2 bytes
  5573 ;; Hardware stack levels used: 1
  5574 ;; Hardware stack levels required when called: 5
  5575 ;; This function calls:
  5576 ;;		Nothing
  5577 ;; This function is called by:
  5578 ;;		_EUSART_Initialize
  5579 ;; This function uses a non-reentrant model
  5580 ;;
  5581                           
  5582     0F02                     _EUSART_SetFramingErrorHandler:	
  5583                           ;psect for function _EUSART_SetFramingErrorHandler
  5584                           
  5585     0F02                     l1681:	
  5586                           ;incstack = 0
  5587                           ; Regs used in _EUSART_SetFramingErrorHandler: [wreg]
  5588                           
  5589                           
  5590                           ;mcc_generated_files/eusart.c: 158:     EUSART_FramingErrorHandler = interruptHandler;
  5591     0F02  0875               	movf	EUSART_SetFramingErrorHandler@interruptHandler+1,w
  5592     0F03  0021               	movlb	1	; select bank1
  5593     0F04  00CA               	movwf	(_EUSART_FramingErrorHandler+1)^(0+128)
  5594     0F05  0874               	movf	EUSART_SetFramingErrorHandler@interruptHandler,w
  5595     0F06  00C9               	movwf	_EUSART_FramingErrorHandler^(0+128)
  5596     0F07                     l92:
  5597     0F07  0008               	return
  5598     0F08                     __end_of_EUSART_SetFramingErrorHandler:
  5599                           
  5600                           	psect	text17
  5601     0EFC                     __ptext17:	
  5602 ;; *************** function _EUSART_SetErrorHandler *****************
  5603 ;; Defined at:
  5604 ;;		line 165 in file "mcc_generated_files/eusart.c"
  5605 ;; Parameters:    Size  Location     Type
  5606 ;;  interruptHan    2    4[COMMON] PTR FTN()void 
  5607 ;;		 -> EUSART_DefaultErrorHandler(1), 
  5608 ;; Auto vars:     Size  Location     Type
  5609 ;;		None
  5610 ;; Return value:  Size  Location     Type
  5611 ;;                  1    wreg      void 
  5612 ;; Registers used:
  5613 ;;		wreg
  5614 ;; Tracked objects:
  5615 ;;		On entry : 0/0
  5616 ;;		On exit  : 0/0
  5617 ;;		Unchanged: 0/0
  5618 ;; Data sizes:     COMMON   BANK0   BANK1   BANK2   BANK3   BANK4
  5619 ;;      Params:         2       0       0       0       0       0
  5620 ;;      Locals:         0       0       0       0       0       0
  5621 ;;      Temps:          0       0       0       0       0       0
  5622 ;;      Totals:         2       0       0       0       0       0
  5623 ;;Total ram usage:        2 bytes
  5624 ;; Hardware stack levels used: 1
  5625 ;; Hardware stack levels required when called: 5
  5626 ;; This function calls:
  5627 ;;		Nothing
  5628 ;; This function is called by:
  5629 ;;		_EUSART_Initialize
  5630 ;; This function uses a non-reentrant model
  5631 ;;
  5632                           
  5633     0EFC                     _EUSART_SetErrorHandler:	
  5634                           ;psect for function _EUSART_SetErrorHandler
  5635                           
  5636     0EFC                     l1685:	
  5637                           ;incstack = 0
  5638                           ; Regs used in _EUSART_SetErrorHandler: [wreg]
  5639                           
  5640                           
  5641                           ;mcc_generated_files/eusart.c: 166:     EUSART_ErrorHandler = interruptHandler;
  5642     0EFC  0875               	movf	EUSART_SetErrorHandler@interruptHandler+1,w
  5643     0EFD  0021               	movlb	1	; select bank1
  5644     0EFE  00C6               	movwf	(_EUSART_ErrorHandler+1)^(0+128)
  5645     0EFF  0874               	movf	EUSART_SetErrorHandler@interruptHandler,w
  5646     0F00  00C5               	movwf	_EUSART_ErrorHandler^(0+128)
  5647     0F01                     l98:
  5648     0F01  0008               	return
  5649     0F02                     __end_of_EUSART_SetErrorHandler:
  5650                           
  5651                           	psect	text18
  5652     0F4D                     __ptext18:	
  5653 ;; *************** function _EPWM2_Initialize *****************
  5654 ;; Defined at:
  5655 ;;		line 64 in file "mcc_generated_files/epwm2.c"
  5656 ;; Parameters:    Size  Location     Type
  5657 ;;		None
  5658 ;; Auto vars:     Size  Location     Type
  5659 ;;		None
  5660 ;; Return value:  Size  Location     Type
  5661 ;;                  1    wreg      void 
  5662 ;; Registers used:
  5663 ;;		wreg, status,2, status,0
  5664 ;; Tracked objects:
  5665 ;;		On entry : 0/0
  5666 ;;		On exit  : 0/0
  5667 ;;		Unchanged: 0/0
  5668 ;; Data sizes:     COMMON   BANK0   BANK1   BANK2   BANK3   BANK4
  5669 ;;      Params:         0       0       0       0       0       0
  5670 ;;      Locals:         0       0       0       0       0       0
  5671 ;;      Temps:          0       0       0       0       0       0
  5672 ;;      Totals:         0       0       0       0       0       0
  5673 ;;Total ram usage:        0 bytes
  5674 ;; Hardware stack levels used: 1
  5675 ;; Hardware stack levels required when called: 5
  5676 ;; This function calls:
  5677 ;;		Nothing
  5678 ;; This function is called by:
  5679 ;;		_SYSTEM_Initialize
  5680 ;; This function uses a non-reentrant model
  5681 ;;
  5682                           
  5683     0F4D                     _EPWM2_Initialize:	
  5684                           ;psect for function _EPWM2_Initialize
  5685                           
  5686     0F4D                     l1743:	
  5687                           ;incstack = 0
  5688                           ; Regs used in _EPWM2_Initialize: [wreg+status,2+status,0]
  5689                           
  5690                           
  5691                           ;mcc_generated_files/epwm2.c: 69:  CCP2CON = 0x0C;
  5692     0F4D  300C               	movlw	12
  5693     0F4E  0025               	movlb	5	; select bank5
  5694     0F4F  009A               	movwf	26	;volatile
  5695     0F50                     l1745:
  5696                           
  5697                           ;mcc_generated_files/epwm2.c: 72:  ECCP2AS = 0x00;
  5698     0F50  019C               	clrf	28	;volatile
  5699     0F51                     l1747:
  5700                           
  5701                           ;mcc_generated_files/epwm2.c: 75:  PWM2CON = 0x80;
  5702     0F51  3080               	movlw	128
  5703     0F52  009B               	movwf	27	;volatile
  5704     0F53                     l1749:
  5705                           
  5706                           ;mcc_generated_files/epwm2.c: 78:  PSTR2CON = 0x01;
  5707     0F53  3001               	movlw	1
  5708     0F54  009D               	movwf	29	;volatile
  5709     0F55                     l1751:
  5710                           
  5711                           ;mcc_generated_files/epwm2.c: 81:  CCPR2H = 0x00;
  5712     0F55  0199               	clrf	25	;volatile
  5713     0F56                     l1753:
  5714                           
  5715                           ;mcc_generated_files/epwm2.c: 84:  CCPR2L = 0x00;
  5716     0F56  0198               	clrf	24	;volatile
  5717     0F57                     l1755:
  5718                           
  5719                           ;mcc_generated_files/epwm2.c: 87:  CCPTMRS0bits.C2TSEL = 0x0;
  5720     0F57  30F3               	movlw	-13
  5721     0F58  059E               	andwf	30,f	;volatile
  5722     0F59                     l269:
  5723     0F59  0008               	return
  5724     0F5A                     __end_of_EPWM2_Initialize:
  5725                           
  5726                           	psect	text19
  5727     0F1A                     __ptext19:	
  5728 ;; *************** function _ADC_Initialize *****************
  5729 ;; Defined at:
  5730 ;;		line 67 in file "mcc_generated_files/adc.c"
  5731 ;; Parameters:    Size  Location     Type
  5732 ;;		None
  5733 ;; Auto vars:     Size  Location     Type
  5734 ;;		None
  5735 ;; Return value:  Size  Location     Type
  5736 ;;                  1    wreg      void 
  5737 ;; Registers used:
  5738 ;;		wreg, status,2
  5739 ;; Tracked objects:
  5740 ;;		On entry : 0/0
  5741 ;;		On exit  : 0/0
  5742 ;;		Unchanged: 0/0
  5743 ;; Data sizes:     COMMON   BANK0   BANK1   BANK2   BANK3   BANK4
  5744 ;;      Params:         0       0       0       0       0       0
  5745 ;;      Locals:         0       0       0       0       0       0
  5746 ;;      Temps:          0       0       0       0       0       0
  5747 ;;      Totals:         0       0       0       0       0       0
  5748 ;;Total ram usage:        0 bytes
  5749 ;; Hardware stack levels used: 1
  5750 ;; Hardware stack levels required when called: 5
  5751 ;; This function calls:
  5752 ;;		Nothing
  5753 ;; This function is called by:
  5754 ;;		_SYSTEM_Initialize
  5755 ;; This function uses a non-reentrant model
  5756 ;;
  5757                           
  5758     0F1A                     _ADC_Initialize:	
  5759                           ;psect for function _ADC_Initialize
  5760                           
  5761     0F1A                     l1757:	
  5762                           ;incstack = 0
  5763                           ; Regs used in _ADC_Initialize: [wreg+status,2]
  5764                           
  5765                           
  5766                           ;mcc_generated_files/adc.c: 72:     ADCON1 = 0x83;
  5767     0F1A  3083               	movlw	131
  5768     0F1B  0021               	movlb	1	; select bank1
  5769     0F1C  009E               	movwf	30	;volatile
  5770     0F1D                     l1759:
  5771                           
  5772                           ;mcc_generated_files/adc.c: 75:     ADRESL = 0x00;
  5773     0F1D  019B               	clrf	27	;volatile
  5774     0F1E                     l1761:
  5775                           
  5776                           ;mcc_generated_files/adc.c: 78:     ADRESH = 0x00;
  5777     0F1E  019C               	clrf	28	;volatile
  5778                           
  5779                           ;mcc_generated_files/adc.c: 81:     ADCON0 = 0x01;
  5780     0F1F  3001               	movlw	1
  5781     0F20  009D               	movwf	29	;volatile
  5782     0F21                     l155:
  5783     0F21  0008               	return
  5784     0F22                     __end_of_ADC_Initialize:
  5785                           
  5786                           	psect	text20
  5787     0EF7                     __ptext20:	
  5788 ;; *************** function _EUSART_is_rx_ready *****************
  5789 ;; Defined at:
  5790 ;;		line 99 in file "mcc_generated_files/eusart.c"
  5791 ;; Parameters:    Size  Location     Type
  5792 ;;		None
  5793 ;; Auto vars:     Size  Location     Type
  5794 ;;		None
  5795 ;; Return value:  Size  Location     Type
  5796 ;;                  1    wreg      _Bool 
  5797 ;; Registers used:
  5798 ;;		wreg, status,2, status,0
  5799 ;; Tracked objects:
  5800 ;;		On entry : 0/0
  5801 ;;		On exit  : 0/0
  5802 ;;		Unchanged: 0/0
  5803 ;; Data sizes:     COMMON   BANK0   BANK1   BANK2   BANK3   BANK4
  5804 ;;      Params:         0       0       0       0       0       0
  5805 ;;      Locals:         0       0       0       0       0       0
  5806 ;;      Temps:          0       0       0       0       0       0
  5807 ;;      Totals:         0       0       0       0       0       0
  5808 ;;Total ram usage:        0 bytes
  5809 ;; Hardware stack levels used: 1
  5810 ;; Hardware stack levels required when called: 5
  5811 ;; This function calls:
  5812 ;;		Nothing
  5813 ;; This function is called by:
  5814 ;;		_main
  5815 ;; This function uses a non-reentrant model
  5816 ;;
  5817                           
  5818     0EF7                     _EUSART_is_rx_ready:	
  5819                           ;psect for function _EUSART_is_rx_ready
  5820                           
  5821     0EF7                     l1819:	
  5822                           ;incstack = 0
  5823                           ; Regs used in _EUSART_is_rx_ready: [wreg+status,2+status,0]
  5824                           
  5825                           
  5826                           ;mcc_generated_files/eusart.c: 101:     return (_Bool)(PIR1bits.RCIF);
  5827     0EF7  0020               	movlb	0	; select bank0
  5828     0EF8  0E11               	swapf	17,w	;volatile
  5829     0EF9  0C89               	rrf	9,f
  5830     0EFA  3901               	andlw	1
  5831     0EFB                     l61:
  5832     0EFB  0008               	return
  5833     0EFC                     __end_of_EUSART_is_rx_ready:
  5834                           
  5835                           	psect	text21
  5836     0F5A                     __ptext21:	
  5837 ;; *************** function _EUSART_Read *****************
  5838 ;; Defined at:
  5839 ;;		line 113 in file "mcc_generated_files/eusart.c"
  5840 ;; Parameters:    Size  Location     Type
  5841 ;;		None
  5842 ;; Auto vars:     Size  Location     Type
  5843 ;;		None
  5844 ;; Return value:  Size  Location     Type
  5845 ;;                  1    wreg      unsigned char 
  5846 ;; Registers used:
  5847 ;;		wreg, status,2
  5848 ;; Tracked objects:
  5849 ;;		On entry : 0/0
  5850 ;;		On exit  : 0/0
  5851 ;;		Unchanged: 0/0
  5852 ;; Data sizes:     COMMON   BANK0   BANK1   BANK2   BANK3   BANK4
  5853 ;;      Params:         0       0       0       0       0       0
  5854 ;;      Locals:         0       0       0       0       0       0
  5855 ;;      Temps:          0       0       0       0       0       0
  5856 ;;      Totals:         0       0       0       0       0       0
  5857 ;;Total ram usage:        0 bytes
  5858 ;; Hardware stack levels used: 1
  5859 ;; Hardware stack levels required when called: 5
  5860 ;; This function calls:
  5861 ;;		Nothing
  5862 ;; This function is called by:
  5863 ;;		_main
  5864 ;; This function uses a non-reentrant model
  5865 ;;
  5866                           
  5867     0F5A                     _EUSART_Read:	
  5868                           ;psect for function _EUSART_Read
  5869                           
  5870     0F5A                     l1823:	
  5871                           ;incstack = 0
  5872                           ; Regs used in _EUSART_Read: [wreg+status,2]
  5873                           
  5874     0F5A                     l70:	
  5875                           ;mcc_generated_files/eusart.c: 116:     {;mcc_generated_files/eusart.c: 117:     }
  5876                           
  5877                           
  5878                           ;mcc_generated_files/eusart.c: 115:     while(!PIR1bits.RCIF)
  5879     0F5A  0020               	movlb	0	; select bank0
  5880     0F5B  1E91               	btfss	17,5	;volatile
  5881     0F5C  2F5E               	goto	u1171
  5882     0F5D  2F5F               	goto	u1170
  5883     0F5E                     u1171:
  5884     0F5E  2F5A               	goto	l70
  5885     0F5F                     u1170:
  5886     0F5F                     l1825:
  5887                           
  5888                           ;mcc_generated_files/eusart.c: 119:     eusartRxLastError.status = 0;
  5889     0F5F  01F9               	clrf	_eusartRxLastError	;volatile
  5890     0F60                     l1827:
  5891                           
  5892                           ;mcc_generated_files/eusart.c: 121:     if(1 == RCSTAbits.OERR)
  5893     0F60  0023               	movlb	3	; select bank3
  5894     0F61  1C9D               	btfss	29,1	;volatile
  5895     0F62  2F64               	goto	u1181
  5896     0F63  2F65               	goto	u1180
  5897     0F64                     u1181:
  5898     0F64  2F67               	goto	l1831
  5899     0F65                     u1180:
  5900     0F65                     l1829:
  5901                           
  5902                           ;mcc_generated_files/eusart.c: 122:     {;mcc_generated_files/eusart.c: 125:         RCS
      +                          TAbits.CREN = 0;
  5903     0F65  121D               	bcf	29,4	;volatile
  5904                           
  5905                           ;mcc_generated_files/eusart.c: 126:         RCSTAbits.CREN = 1;
  5906     0F66  161D               	bsf	29,4	;volatile
  5907     0F67                     l1831:
  5908                           
  5909                           ;mcc_generated_files/eusart.c: 129:     return RCREG;
  5910     0F67  0819               	movf	25,w	;volatile
  5911     0F68                     l74:
  5912     0F68  0008               	return
  5913     0F69                     __end_of_EUSART_Read:
  5914                           
  5915                           	psect	text22
  5916     0FAA                     __ptext22:	
  5917 ;; *************** function _EPWM2_LoadDutyValue *****************
  5918 ;; Defined at:
  5919 ;;		line 90 in file "mcc_generated_files/epwm2.c"
  5920 ;; Parameters:    Size  Location     Type
  5921 ;;  dutyValue       2    4[COMMON] unsigned short 
  5922 ;; Auto vars:     Size  Location     Type
  5923 ;;		None
  5924 ;; Return value:  Size  Location     Type
  5925 ;;                  1    wreg      void 
  5926 ;; Registers used:
  5927 ;;		wreg, status,2, status,0
  5928 ;; Tracked objects:
  5929 ;;		On entry : 0/0
  5930 ;;		On exit  : 0/0
  5931 ;;		Unchanged: 0/0
  5932 ;; Data sizes:     COMMON   BANK0   BANK1   BANK2   BANK3   BANK4
  5933 ;;      Params:         2       0       0       0       0       0
  5934 ;;      Locals:         0       0       0       0       0       0
  5935 ;;      Temps:          0       2       0       0       0       0
  5936 ;;      Totals:         2       2       0       0       0       0
  5937 ;;Total ram usage:        4 bytes
  5938 ;; Hardware stack levels used: 1
  5939 ;; Hardware stack levels required when called: 5
  5940 ;; This function calls:
  5941 ;;		Nothing
  5942 ;; This function is called by:
  5943 ;;		_main
  5944 ;; This function uses a non-reentrant model
  5945 ;;
  5946                           
  5947     0FAA                     _EPWM2_LoadDutyValue:	
  5948                           ;psect for function _EPWM2_LoadDutyValue
  5949                           
  5950     0FAA                     l2315:	
  5951                           ;incstack = 0
  5952                           ; Regs used in _EPWM2_LoadDutyValue: [wreg+status,2+status,0]
  5953                           
  5954                           
  5955                           ;mcc_generated_files/epwm2.c: 90: void EPWM2_LoadDutyValue(uint16_t dutyValue);mcc_gener
      +                          ated_files/epwm2.c: 91: {;mcc_generated_files/epwm2.c: 93:     CCPR2L = ((dutyValue & 0x
      +                          03FC)>>2);
  5956     0FAA  0875               	movf	EPWM2_LoadDutyValue@dutyValue+1,w
  5957     0FAB  0020               	movlb	0	; select bank0
  5958     0FAC  00A1               	movwf	??_EPWM2_LoadDutyValue+1
  5959     0FAD  0874               	movf	EPWM2_LoadDutyValue@dutyValue,w
  5960     0FAE  00A0               	movwf	??_EPWM2_LoadDutyValue
  5961     0FAF  36A1               	lsrf	??_EPWM2_LoadDutyValue+1,f
  5962     0FB0  0CA0               	rrf	??_EPWM2_LoadDutyValue,f
  5963     0FB1  36A1               	lsrf	??_EPWM2_LoadDutyValue+1,f
  5964     0FB2  0CA0               	rrf	??_EPWM2_LoadDutyValue,f
  5965     0FB3  0820               	movf	??_EPWM2_LoadDutyValue,w
  5966     0FB4  0025               	movlb	5	; select bank5
  5967     0FB5  0098               	movwf	24	;volatile
  5968                           
  5969                           ;mcc_generated_files/epwm2.c: 96:     CCP2CON = ((uint8_t)(CCP2CON & 0xCF) | ((dutyValue
      +                           & 0x0003)<<4));
  5970     0FB6  0874               	movf	EPWM2_LoadDutyValue@dutyValue,w
  5971     0FB7  3903               	andlw	3
  5972     0FB8  0020               	movlb	0	; select bank0
  5973     0FB9  00A0               	movwf	??_EPWM2_LoadDutyValue
  5974     0FBA  3004               	movlw	4
  5975     0FBB                     u2145:
  5976     0FBB  35A0               	lslf	??_EPWM2_LoadDutyValue,f
  5977     0FBC  0B89               	decfsz	9,f
  5978     0FBD  2FBB               	goto	u2145
  5979     0FBE  0025               	movlb	5	; select bank5
  5980     0FBF  081A               	movf	26,w	;volatile
  5981     0FC0  39CF               	andlw	207
  5982     0FC1  0020               	movlb	0	; select bank0
  5983     0FC2  0420               	iorwf	??_EPWM2_LoadDutyValue,w
  5984     0FC3  0025               	movlb	5	; select bank5
  5985     0FC4  009A               	movwf	26	;volatile
  5986     0FC5                     l272:
  5987     0FC5  0008               	return
  5988     0FC6                     __end_of_EPWM2_LoadDutyValue:
  5989                           
  5990                           	psect	text23
  5991     07E0                     __ptext23:	
  5992 ;; *************** function _ADC_GetConversion *****************
  5993 ;; Defined at:
  5994 ;;		line 112 in file "mcc_generated_files/adc.c"
  5995 ;; Parameters:    Size  Location     Type
  5996 ;;  channel         1    wreg     enum E2495
  5997 ;; Auto vars:     Size  Location     Type
  5998 ;;  channel         1    1[BANK0 ] enum E2495
  5999 ;; Return value:  Size  Location     Type
  6000 ;;                  2    4[COMMON] unsigned short 
  6001 ;; Registers used:
  6002 ;;		wreg, status,2, status,0
  6003 ;; Tracked objects:
  6004 ;;		On entry : 0/0
  6005 ;;		On exit  : 0/0
  6006 ;;		Unchanged: 0/0
  6007 ;; Data sizes:     COMMON   BANK0   BANK1   BANK2   BANK3   BANK4
  6008 ;;      Params:         2       0       0       0       0       0
  6009 ;;      Locals:         0       1       0       0       0       0
  6010 ;;      Temps:          0       1       0       0       0       0
  6011 ;;      Totals:         2       2       0       0       0       0
  6012 ;;Total ram usage:        4 bytes
  6013 ;; Hardware stack levels used: 1
  6014 ;; Hardware stack levels required when called: 5
  6015 ;; This function calls:
  6016 ;;		Nothing
  6017 ;; This function is called by:
  6018 ;;		_main
  6019 ;; This function uses a non-reentrant model
  6020 ;;
  6021                           
  6022     07E0                     _ADC_GetConversion:	
  6023                           ;psect for function _ADC_GetConversion
  6024                           
  6025                           
  6026                           ;incstack = 0
  6027                           ; Regs used in _ADC_GetConversion: [wreg+status,2+status,0]
  6028                           ;ADC_GetConversion@channel stored from wreg
  6029     07E0  0020               	movlb	0	; select bank0
  6030     07E1  00A1               	movwf	ADC_GetConversion@channel
  6031     07E2                     l2303:
  6032                           
  6033                           ;mcc_generated_files/adc.c: 112: adc_result_t ADC_GetConversion(adc_channel_t channel);m
      +                          cc_generated_files/adc.c: 113: {;mcc_generated_files/adc.c: 115:     ADCON0bits.CHS = ch
      +                          annel;
  6034     07E2  0821               	movf	ADC_GetConversion@channel,w
  6035     07E3  00A0               	movwf	??_ADC_GetConversion
  6036     07E4  0DA0               	rlf	??_ADC_GetConversion,f
  6037     07E5  0DA0               	rlf	??_ADC_GetConversion,f
  6038     07E6  0021               	movlb	1	; select bank1
  6039     07E7  081D               	movf	29,w	;volatile
  6040     07E8  0020               	movlb	0	; select bank0
  6041     07E9  0620               	xorwf	??_ADC_GetConversion,w
  6042     07EA  3983               	andlw	-125
  6043     07EB  0620               	xorwf	??_ADC_GetConversion,w
  6044     07EC  0021               	movlb	1	; select bank1
  6045     07ED  009D               	movwf	29	;volatile
  6046     07EE                     l2305:
  6047                           
  6048                           ;mcc_generated_files/adc.c: 118:     ADCON0bits.ADON = 1;
  6049     07EE  141D               	bsf	29,0	;volatile
  6050     07EF                     l2307:
  6051                           
  6052                           ;mcc_generated_files/adc.c: 121:     _delay((unsigned long)((5)*(32000000/4000000.0)));
  6053     07EF  300D               	movlw	13
  6054     07F0                     u2717:
  6055     07F0  0B89               	decfsz	9,f
  6056     07F1  2FF0               	goto	u2717
  6057     07F2  0000               	nop
  6058     07F3                     l2309:
  6059                           
  6060                           ;mcc_generated_files/adc.c: 124:     ADCON0bits.GO_nDONE = 1;
  6061     07F3  0021               	movlb	1	; select bank1
  6062     07F4  149D               	bsf	29,1	;volatile
  6063     07F5                     l170:	
  6064                           ;mcc_generated_files/adc.c: 128:     {;mcc_generated_files/adc.c: 129:     }
  6065                           
  6066                           
  6067                           ;mcc_generated_files/adc.c: 127:     while (ADCON0bits.GO_nDONE)
  6068     07F5  189D               	btfsc	29,1	;volatile
  6069     07F6  2FF8               	goto	u2131
  6070     07F7  2FF9               	goto	u2130
  6071     07F8                     u2131:
  6072     07F8  2FF5               	goto	l170
  6073     07F9                     u2130:
  6074     07F9                     l2311:
  6075                           
  6076                           ;mcc_generated_files/adc.c: 132:     return ((adc_result_t)((ADRESH << 8) + ADRESL));
  6077     07F9  081C               	movf	28,w	;volatile
  6078     07FA  00F5               	movwf	?_ADC_GetConversion+1
  6079     07FB  081B               	movf	27,w	;volatile
  6080     07FC  00F4               	movwf	?_ADC_GetConversion
  6081     07FD                     l173:
  6082     07FD  0008               	return
  6083     07FE                     __end_of_ADC_GetConversion:
  6084                           
  6085                           	psect	intentry
  6086     0004                     __pintentry:	
  6087 ;; *************** function _INTERRUPT_InterruptManager *****************
  6088 ;; Defined at:
  6089 ;;		line 52 in file "mcc_generated_files/interrupt_manager.c"
  6090 ;; Parameters:    Size  Location     Type
  6091 ;;		None
  6092 ;; Auto vars:     Size  Location     Type
  6093 ;;		None
  6094 ;; Return value:  Size  Location     Type
  6095 ;;                  1    wreg      void 
  6096 ;; Registers used:
  6097 ;;		wreg, fsr0l, fsr0h, fsr1l, fsr1h, status,2, status,0, pclath, cstack
  6098 ;; Tracked objects:
  6099 ;;		On entry : 0/0
  6100 ;;		On exit  : 0/0
  6101 ;;		Unchanged: 0/0
  6102 ;; Data sizes:     COMMON   BANK0   BANK1   BANK2   BANK3   BANK4
  6103 ;;      Params:         0       0       0       0       0       0
  6104 ;;      Locals:         0       0       0       0       0       0
  6105 ;;      Temps:          0       0       0       0       0       0
  6106 ;;      Totals:         0       0       0       0       0       0
  6107 ;;Total ram usage:        0 bytes
  6108 ;; Hardware stack levels used: 1
  6109 ;; Hardware stack levels required when called: 4
  6110 ;; This function calls:
  6111 ;;		_TMR1_ISR
  6112 ;; This function is called by:
  6113 ;;		Interrupt level 1
  6114 ;; This function uses a non-reentrant model
  6115 ;;
  6116                           
  6117     0004                     _INTERRUPT_InterruptManager:
  6118                           
  6119                           ;incstack = 0
  6120     0004  147E               	bsf	int$flags,0	;set compiler interrupt flag (level 1)
  6121                           
  6122                           ; Regs used in _INTERRUPT_InterruptManager: [wreg-fsr1h+status,2+status,0+pclath+cstack]
  6123     0005  3180               	pagesel	$
  6124     0006                     i1l2279:
  6125                           
  6126                           ;mcc_generated_files/interrupt_manager.c: 55:     if(INTCONbits.PEIE == 1)
  6127     0006  1F0B               	btfss	11,6	;volatile
  6128     0007  2809               	goto	u207_21
  6129     0008  280A               	goto	u207_20
  6130     0009                     u207_21:
  6131     0009  2817               	goto	i1l321
  6132     000A                     u207_20:
  6133     000A                     i1l2281:
  6134                           
  6135                           ;mcc_generated_files/interrupt_manager.c: 56:     {;mcc_generated_files/interrupt_manage
      +                          r.c: 57:         if(PIE1bits.TMR1IE == 1 && PIR1bits.TMR1IF == 1)
  6136     000A  0021               	movlb	1	; select bank1
  6137     000B  1C11               	btfss	17,0	;volatile
  6138     000C  280E               	goto	u208_21
  6139     000D  280F               	goto	u208_20
  6140     000E                     u208_21:
  6141     000E  2817               	goto	i1l321
  6142     000F                     u208_20:
  6143     000F                     i1l2283:
  6144     000F  0020               	movlb	0	; select bank0
  6145     0010  1C11               	btfss	17,0	;volatile
  6146     0011  2813               	goto	u209_21
  6147     0012  2814               	goto	u209_20
  6148     0013                     u209_21:
  6149     0013  2817               	goto	i1l321
  6150     0014                     u209_20:
  6151     0014                     i1l2285:
  6152                           
  6153                           ;mcc_generated_files/interrupt_manager.c: 58:         {;mcc_generated_files/interrupt_ma
      +                          nager.c: 59:             TMR1_ISR();
  6154     0014  318F  27E2  3180   	fcall	_TMR1_ISR
  6155     0017                     i1l321:	
  6156                           ;mcc_generated_files/interrupt_manager.c: 60:         }
  6157                           
  6158     0017  107E               	bcf	int$flags,0	;clear compiler interrupt flag (level 1)
  6159     0018  0009               	retfie
  6160     0019                     __end_of_INTERRUPT_InterruptManager:
  6161                           
  6162                           	psect	text25
  6163     0FE2                     __ptext25:	
  6164 ;; *************** function _TMR1_ISR *****************
  6165 ;; Defined at:
  6166 ;;		line 157 in file "mcc_generated_files/tmr1.c"
  6167 ;; Parameters:    Size  Location     Type
  6168 ;;		None
  6169 ;; Auto vars:     Size  Location     Type
  6170 ;;		None
  6171 ;; Return value:  Size  Location     Type
  6172 ;;                  1    wreg      void 
  6173 ;; Registers used:
  6174 ;;		wreg, fsr0l, fsr0h, fsr1l, fsr1h, status,2, status,0, pclath, cstack
  6175 ;; Tracked objects:
  6176 ;;		On entry : 0/0
  6177 ;;		On exit  : 0/0
  6178 ;;		Unchanged: 0/0
  6179 ;; Data sizes:     COMMON   BANK0   BANK1   BANK2   BANK3   BANK4
  6180 ;;      Params:         0       0       0       0       0       0
  6181 ;;      Locals:         0       0       0       0       0       0
  6182 ;;      Temps:          0       0       0       0       0       0
  6183 ;;      Totals:         0       0       0       0       0       0
  6184 ;;Total ram usage:        0 bytes
  6185 ;; Hardware stack levels used: 1
  6186 ;; Hardware stack levels required when called: 3
  6187 ;; This function calls:
  6188 ;;		_TMR1_CallBack
  6189 ;;		_TMR1_WriteTimer
  6190 ;; This function is called by:
  6191 ;;		_INTERRUPT_InterruptManager
  6192 ;; This function uses a non-reentrant model
  6193 ;;
  6194                           
  6195     0FE2                     _TMR1_ISR:	
  6196                           ;psect for function _TMR1_ISR
  6197                           
  6198     0FE2                     i1l1851:	
  6199                           ;incstack = 0
  6200                           ; Regs used in _TMR1_ISR: [wreg-fsr1h+status,2+status,0+pclath+cstack]
  6201                           
  6202                           
  6203                           ;mcc_generated_files/tmr1.c: 159:     static volatile unsigned int CountCallBack = 0;;mc
      +                          c_generated_files/tmr1.c: 162:     PIR1bits.TMR1IF = 0;
  6204     0FE2  0020               	movlb	0	; select bank0
  6205     0FE3  1011               	bcf	17,0	;volatile
  6206     0FE4                     i1l1853:
  6207                           
  6208                           ;mcc_generated_files/tmr1.c: 163:     TMR1_WriteTimer(timer1ReloadVal);
  6209     0FE4  0877               	movf	_timer1ReloadVal+1,w	;volatile
  6210     0FE5  00F1               	movwf	TMR1_WriteTimer@timerVal+1
  6211     0FE6  0876               	movf	_timer1ReloadVal,w	;volatile
  6212     0FE7  00F0               	movwf	TMR1_WriteTimer@timerVal
  6213     0FE8  318F  2769  318F   	fcall	_TMR1_WriteTimer
  6214     0FEB                     i1l1855:
  6215                           
  6216                           ;mcc_generated_files/tmr1.c: 166:     if (++CountCallBack >= 200)
  6217     0FEB  3001               	movlw	1
  6218     0FEC  0020               	movlb	0	; select bank0
  6219     0FED  07EC               	addwf	TMR1_ISR@CountCallBack,f	;volatile
  6220     0FEE  3000               	movlw	0
  6221     0FEF  3DED               	addwfc	TMR1_ISR@CountCallBack+1,f	;volatile
  6222     0FF0  3000               	movlw	0
  6223     0FF1  026D               	subwf	TMR1_ISR@CountCallBack+1,w	;volatile
  6224     0FF2  30C8               	movlw	200
  6225     0FF3  1903               	skipnz
  6226     0FF4  026C               	subwf	TMR1_ISR@CountCallBack,w	;volatile
  6227     0FF5  1C03               	skipc
  6228     0FF6  2FF8               	goto	u121_21
  6229     0FF7  2FF9               	goto	u121_20
  6230     0FF8                     u121_21:
  6231     0FF8  2FFF               	goto	i1l379
  6232     0FF9                     u121_20:
  6233     0FF9                     i1l1857:
  6234                           
  6235                           ;mcc_generated_files/tmr1.c: 167:     {;mcc_generated_files/tmr1.c: 169:         TMR1_Ca
      +                          llBack();
  6236     0FF9  318F  2740  318F   	fcall	_TMR1_CallBack
  6237     0FFC                     i1l1859:
  6238                           
  6239                           ;mcc_generated_files/tmr1.c: 172:         CountCallBack = 0;
  6240     0FFC  0020               	movlb	0	; select bank0
  6241     0FFD  01EC               	clrf	TMR1_ISR@CountCallBack	;volatile
  6242     0FFE  01ED               	clrf	TMR1_ISR@CountCallBack+1	;volatile
  6243     0FFF                     i1l379:
  6244     0FFF  0008               	return
  6245     1000                     __end_of_TMR1_ISR:
  6246                           
  6247                           	psect	text26
  6248     0F69                     __ptext26:	
  6249 ;; *************** function _TMR1_WriteTimer *****************
  6250 ;; Defined at:
  6251 ;;		line 120 in file "mcc_generated_files/tmr1.c"
  6252 ;; Parameters:    Size  Location     Type
  6253 ;;  timerVal        2    0[COMMON] unsigned short 
  6254 ;; Auto vars:     Size  Location     Type
  6255 ;;		None
  6256 ;; Return value:  Size  Location     Type
  6257 ;;                  1    wreg      void 
  6258 ;; Registers used:
  6259 ;;		wreg, status,2
  6260 ;; Tracked objects:
  6261 ;;		On entry : 0/0
  6262 ;;		On exit  : 0/0
  6263 ;;		Unchanged: 0/0
  6264 ;; Data sizes:     COMMON   BANK0   BANK1   BANK2   BANK3   BANK4
  6265 ;;      Params:         2       0       0       0       0       0
  6266 ;;      Locals:         0       0       0       0       0       0
  6267 ;;      Temps:          0       0       0       0       0       0
  6268 ;;      Totals:         2       0       0       0       0       0
  6269 ;;Total ram usage:        2 bytes
  6270 ;; Hardware stack levels used: 1
  6271 ;; This function calls:
  6272 ;;		Nothing
  6273 ;; This function is called by:
  6274 ;;		_TMR1_ISR
  6275 ;;		_TMR1_Reload
  6276 ;; This function uses a non-reentrant model
  6277 ;;
  6278                           
  6279     0F69                     _TMR1_WriteTimer:	
  6280                           ;psect for function _TMR1_WriteTimer
  6281                           
  6282     0F69                     i1l1787:	
  6283                           ;incstack = 0
  6284                           ; Regs used in _TMR1_WriteTimer: [wreg+status,2]
  6285                           
  6286                           
  6287                           ;mcc_generated_files/tmr1.c: 120: void TMR1_WriteTimer(uint16_t timerVal);mcc_generated_
      +                          files/tmr1.c: 121: {;mcc_generated_files/tmr1.c: 122:     if (T1CONbits.nT1SYNC == 1)
  6288     0F69  0020               	movlb	0	; select bank0
  6289     0F6A  1D18               	btfss	24,2	;volatile
  6290     0F6B  2F6D               	goto	u112_21
  6291     0F6C  2F6E               	goto	u112_20
  6292     0F6D                     u112_21:
  6293     0F6D  2F75               	goto	i1l1797
  6294     0F6E                     u112_20:
  6295     0F6E                     i1l1789:
  6296                           
  6297                           ;mcc_generated_files/tmr1.c: 123:     {;mcc_generated_files/tmr1.c: 125:         T1CONbi
      +                          ts.TMR1ON = 0;
  6298     0F6E  1018               	bcf	24,0	;volatile
  6299     0F6F                     i1l1791:
  6300                           
  6301                           ;mcc_generated_files/tmr1.c: 128:         TMR1H = (uint8_t)(timerVal >> 8);
  6302     0F6F  0871               	movf	TMR1_WriteTimer@timerVal+1,w
  6303     0F70  0097               	movwf	23	;volatile
  6304     0F71                     i1l1793:
  6305                           
  6306                           ;mcc_generated_files/tmr1.c: 129:         TMR1L = (uint8_t)timerVal;
  6307     0F71  0870               	movf	TMR1_WriteTimer@timerVal,w
  6308     0F72  0096               	movwf	22	;volatile
  6309     0F73                     i1l1795:
  6310                           
  6311                           ;mcc_generated_files/tmr1.c: 132:         T1CONbits.TMR1ON =1;
  6312     0F73  1418               	bsf	24,0	;volatile
  6313                           
  6314                           ;mcc_generated_files/tmr1.c: 133:     }
  6315     0F74  2F79               	goto	i1l364
  6316     0F75                     i1l1797:
  6317                           
  6318                           ;mcc_generated_files/tmr1.c: 135:     {;mcc_generated_files/tmr1.c: 137:         TMR1H =
      +                           (uint8_t)(timerVal >> 8);
  6319     0F75  0871               	movf	TMR1_WriteTimer@timerVal+1,w
  6320     0F76  0097               	movwf	23	;volatile
  6321     0F77                     i1l1799:
  6322                           
  6323                           ;mcc_generated_files/tmr1.c: 138:         TMR1L = (uint8_t)timerVal;
  6324     0F77  0870               	movf	TMR1_WriteTimer@timerVal,w
  6325     0F78  0096               	movwf	22	;volatile
  6326     0F79                     i1l364:
  6327     0F79  0008               	return
  6328     0F7A                     __end_of_TMR1_WriteTimer:
  6329                           
  6330                           	psect	text27
  6331     0F40                     __ptext27:	
  6332 ;; *************** function _TMR1_CallBack *****************
  6333 ;; Defined at:
  6334 ;;		line 176 in file "mcc_generated_files/tmr1.c"
  6335 ;; Parameters:    Size  Location     Type
  6336 ;;		None
  6337 ;; Auto vars:     Size  Location     Type
  6338 ;;		None
  6339 ;; Return value:  Size  Location     Type
  6340 ;;                  1    wreg      void 
  6341 ;; Registers used:
  6342 ;;		wreg, fsr0l, fsr0h, fsr1l, fsr1h, status,2, status,0, pclath, cstack
  6343 ;; Tracked objects:
  6344 ;;		On entry : 0/0
  6345 ;;		On exit  : 0/0
  6346 ;;		Unchanged: 0/0
  6347 ;; Data sizes:     COMMON   BANK0   BANK1   BANK2   BANK3   BANK4
  6348 ;;      Params:         0       0       0       0       0       0
  6349 ;;      Locals:         0       0       0       0       0       0
  6350 ;;      Temps:          0       0       0       0       0       0
  6351 ;;      Totals:         0       0       0       0       0       0
  6352 ;;Total ram usage:        0 bytes
  6353 ;; Hardware stack levels used: 1
  6354 ;; Hardware stack levels required when called: 2
  6355 ;; This function calls:
  6356 ;;		NULL
  6357 ;;		_TMR1_DefaultInterruptHandler
  6358 ;;		_enviar_tx
  6359 ;; This function is called by:
  6360 ;;		_TMR1_ISR
  6361 ;; This function uses a non-reentrant model
  6362 ;;
  6363                           
  6364     0F40                     _TMR1_CallBack:	
  6365                           ;psect for function _TMR1_CallBack
  6366                           
  6367     0F40                     i1l1801:	
  6368                           ;incstack = 0
  6369                           ; Regs used in _TMR1_CallBack: [wreg-fsr1h+status,2+status,0+pclath+cstack]
  6370                           
  6371                           
  6372                           ;mcc_generated_files/tmr1.c: 179:     if(TMR1_InterruptHandler)
  6373     0F40  0020               	movlb	0	; select bank0
  6374     0F41  086E               	movf	_TMR1_InterruptHandler,w
  6375     0F42  046F               	iorwf	_TMR1_InterruptHandler+1,w
  6376     0F43  1903               	btfsc	3,2
  6377     0F44  2F46               	goto	u113_21
  6378     0F45  2F47               	goto	u113_20
  6379     0F46                     u113_21:
  6380     0F46  2F4C               	goto	i1l383
  6381     0F47                     u113_20:
  6382     0F47                     i1l1803:
  6383                           
  6384                           ;mcc_generated_files/tmr1.c: 180:     {;mcc_generated_files/tmr1.c: 181:         TMR1_In
      +                          terruptHandler();
  6385     0F47  086F               	movf	_TMR1_InterruptHandler+1,w
  6386     0F48  008A               	movwf	10
  6387     0F49  086E               	movf	_TMR1_InterruptHandler,w
  6388     0F4A  000A               	callw
  6389     0F4B  318F               	pagesel	$
  6390     0F4C                     i1l383:
  6391     0F4C  0008               	return
  6392     0F4D                     __end_of_TMR1_CallBack:
  6393                           
  6394                           	psect	text28
  6395     07FE                     __ptext28:	
  6396 ;; *************** function _TMR1_DefaultInterruptHandler *****************
  6397 ;; Defined at:
  6398 ;;		line 189 in file "mcc_generated_files/tmr1.c"
  6399 ;; Parameters:    Size  Location     Type
  6400 ;;		None
  6401 ;; Auto vars:     Size  Location     Type
  6402 ;;		None
  6403 ;; Return value:  Size  Location     Type
  6404 ;;                  1    wreg      void 
  6405 ;; Registers used:
  6406 ;;		None
  6407 ;; Tracked objects:
  6408 ;;		On entry : 0/0
  6409 ;;		On exit  : 0/0
  6410 ;;		Unchanged: 0/0
  6411 ;; Data sizes:     COMMON   BANK0   BANK1   BANK2   BANK3   BANK4
  6412 ;;      Params:         0       0       0       0       0       0
  6413 ;;      Locals:         0       0       0       0       0       0
  6414 ;;      Temps:          0       0       0       0       0       0
  6415 ;;      Totals:         0       0       0       0       0       0
  6416 ;;Total ram usage:        0 bytes
  6417 ;; Hardware stack levels used: 1
  6418 ;; This function calls:
  6419 ;;		Nothing
  6420 ;; This function is called by:
  6421 ;;		_TMR1_Initialize
  6422 ;;		_TMR1_CallBack
  6423 ;; This function uses a non-reentrant model
  6424 ;;
  6425                           
  6426     07FE                     _TMR1_DefaultInterruptHandler:	
  6427                           ;psect for function _TMR1_DefaultInterruptHandler
  6428                           
  6429     07FE                     i1l389:	
  6430                           ;incstack = 0
  6431                           ; Regs used in _TMR1_DefaultInterruptHandler: []
  6432                           
  6433     07FE  0008               	return
  6434     07FF                     __end_of_TMR1_DefaultInterruptHandler:
  6435                           
  6436                           	psect	text29
  6437     0761                     __ptext29:	
  6438 ;; *************** function _enviar_tx *****************
  6439 ;; Defined at:
  6440 ;;		line 68 in file "main.c"
  6441 ;; Parameters:    Size  Location     Type
  6442 ;;		None
  6443 ;; Auto vars:     Size  Location     Type
  6444 ;;  i               2    2[COMMON] int 
  6445 ;; Return value:  Size  Location     Type
  6446 ;;                  1    wreg      void 
  6447 ;; Registers used:
  6448 ;;		wreg, fsr0l, fsr0h, fsr1l, fsr1h, status,2, status,0, pclath, cstack
  6449 ;; Tracked objects:
  6450 ;;		On entry : 0/0
  6451 ;;		On exit  : 0/0
  6452 ;;		Unchanged: 0/0
  6453 ;; Data sizes:     COMMON   BANK0   BANK1   BANK2   BANK3   BANK4
  6454 ;;      Params:         0       0       0       0       0       0
  6455 ;;      Locals:         2       0       0       0       0       0
  6456 ;;      Temps:          1       0       0       0       0       0
  6457 ;;      Totals:         3       0       0       0       0       0
  6458 ;;Total ram usage:        3 bytes
  6459 ;; Hardware stack levels used: 1
  6460 ;; Hardware stack levels required when called: 1
  6461 ;; This function calls:
  6462 ;;		_EUSART_Write
  6463 ;; This function is called by:
  6464 ;;		_main
  6465 ;;		_TMR1_CallBack
  6466 ;; This function uses a non-reentrant model
  6467 ;;
  6468                           
  6469     0761                     _enviar_tx:	
  6470                           ;psect for function _enviar_tx
  6471                           
  6472     0761                     i1l1687:	
  6473                           ;incstack = 0
  6474                           ; Regs used in _enviar_tx: [wreg-fsr1h+status,2+status,0+pclath+cstack]
  6475                           
  6476                           
  6477                           ;main.c: 69:     if(activate_tx){
  6478     0761  0878               	movf	_activate_tx,w
  6479     0762  1903               	btfsc	3,2
  6480     0763  2F65               	goto	u108_21
  6481     0764  2F66               	goto	u108_20
  6482     0765                     u108_21:
  6483     0765  2F99               	goto	i1l235
  6484     0766                     u108_20:
  6485     0766                     i1l1689:
  6486                           
  6487                           ;main.c: 70:         for(int i = 0 ; i<5 ; i++){
  6488     0766  01F2               	clrf	enviar_tx@i
  6489     0767  01F3               	clrf	enviar_tx@i+1
  6490     0768                     i1l1695:
  6491                           
  6492                           ;main.c: 71:             if(i >= 1){
  6493     0768  0873               	movf	enviar_tx@i+1,w
  6494     0769  3A80               	xorlw	128
  6495     076A  00F1               	movwf	??_enviar_tx
  6496     076B  3080               	movlw	128
  6497     076C  0271               	subwf	??_enviar_tx,w
  6498     076D  1D03               	skipz
  6499     076E  2F71               	goto	u109_25
  6500     076F  3001               	movlw	1
  6501     0770  0272               	subwf	enviar_tx@i,w
  6502     0771                     u109_25:
  6503     0771  1C03               	skipc
  6504     0772  2F74               	goto	u109_21
  6505     0773  2F75               	goto	u109_20
  6506     0774                     u109_21:
  6507     0774  2F80               	goto	i1l1699
  6508     0775                     u109_20:
  6509     0775                     i1l1697:
  6510                           
  6511                           ;main.c: 72:             tx_buffer[i] = tx_buffer[i] & 0x7F;
  6512     0775  0872               	movf	enviar_tx@i,w
  6513     0776  3EB9               	addlw	(low (_tx_buffer| 0))& (0+255)
  6514     0777  0086               	movwf	6
  6515     0778  0187               	clrf	7
  6516     0779  0872               	movf	enviar_tx@i,w
  6517     077A  3EB9               	addlw	(low (_tx_buffer| 0))& (0+255)
  6518     077B  0084               	movwf	4
  6519     077C  0185               	clrf	5
  6520     077D  0800               	movf	0,w
  6521     077E  397F               	andlw	127
  6522     077F  0081               	movwf	1
  6523     0780                     i1l1699:
  6524                           
  6525                           ;main.c: 74:             EUSART_Write(tx_buffer[i]);
  6526     0780  0872               	movf	enviar_tx@i,w
  6527     0781  3EB9               	addlw	(low (_tx_buffer| 0))& (0+255)
  6528     0782  0086               	movwf	6
  6529     0783  0187               	clrf	7
  6530     0784  0801               	movf	1,w
  6531     0785  318F  272A  3187   	fcall	_EUSART_Write
  6532     0788                     i1l1701:
  6533                           
  6534                           ;main.c: 75:         }
  6535     0788  3001               	movlw	1
  6536     0789  07F2               	addwf	enviar_tx@i,f
  6537     078A  3000               	movlw	0
  6538     078B  3DF3               	addwfc	enviar_tx@i+1,f
  6539     078C                     i1l1703:
  6540     078C  0873               	movf	enviar_tx@i+1,w
  6541     078D  3A80               	xorlw	128
  6542     078E  00F1               	movwf	??_enviar_tx
  6543     078F  3080               	movlw	128
  6544     0790  0271               	subwf	??_enviar_tx,w
  6545     0791  1D03               	skipz
  6546     0792  2F95               	goto	u110_25
  6547     0793  3005               	movlw	5
  6548     0794  0272               	subwf	enviar_tx@i,w
  6549     0795                     u110_25:
  6550     0795  1C03               	skipc
  6551     0796  2F98               	goto	u110_21
  6552     0797  2F99               	goto	u110_20
  6553     0798                     u110_21:
  6554     0798  2F68               	goto	i1l1695
  6555     0799                     u110_20:
  6556     0799                     i1l235:
  6557     0799  0008               	return
  6558     079A                     __end_of_enviar_tx:
  6559                           
  6560                           	psect	text30
  6561     0F2A                     __ptext30:	
  6562 ;; *************** function _EUSART_Write *****************
  6563 ;; Defined at:
  6564 ;;		line 132 in file "mcc_generated_files/eusart.c"
  6565 ;; Parameters:    Size  Location     Type
  6566 ;;  txData          1    wreg     unsigned char 
  6567 ;; Auto vars:     Size  Location     Type
  6568 ;;  txData          1    0[COMMON] unsigned char 
  6569 ;; Return value:  Size  Location     Type
  6570 ;;                  1    wreg      void 
  6571 ;; Registers used:
  6572 ;;		wreg
  6573 ;; Tracked objects:
  6574 ;;		On entry : 0/0
  6575 ;;		On exit  : 0/0
  6576 ;;		Unchanged: 0/0
  6577 ;; Data sizes:     COMMON   BANK0   BANK1   BANK2   BANK3   BANK4
  6578 ;;      Params:         0       0       0       0       0       0
  6579 ;;      Locals:         1       0       0       0       0       0
  6580 ;;      Temps:          0       0       0       0       0       0
  6581 ;;      Totals:         1       0       0       0       0       0
  6582 ;;Total ram usage:        1 bytes
  6583 ;; Hardware stack levels used: 1
  6584 ;; This function calls:
  6585 ;;		Nothing
  6586 ;; This function is called by:
  6587 ;;		_enviar_tx
  6588 ;; This function uses a non-reentrant model
  6589 ;;
  6590                           
  6591     0F2A                     _EUSART_Write:	
  6592                           ;psect for function _EUSART_Write
  6593                           
  6594                           
  6595                           ;incstack = 0
  6596                           ; Regs used in _EUSART_Write: [wreg]
  6597                           ;EUSART_Write@txData stored from wreg
  6598     0F2A  00F0               	movwf	EUSART_Write@txData
  6599     0F2B                     i1l1677:
  6600     0F2B                     i1l77:	
  6601                           ;mcc_generated_files/eusart.c: 135:     {;mcc_generated_files/eusart.c: 136:     }
  6602                           
  6603                           
  6604                           ;mcc_generated_files/eusart.c: 134:     while(0 == PIR1bits.TXIF)
  6605     0F2B  0020               	movlb	0	; select bank0
  6606     0F2C  1E11               	btfss	17,4	;volatile
  6607     0F2D  2F2F               	goto	u107_21
  6608     0F2E  2F30               	goto	u107_20
  6609     0F2F                     u107_21:
  6610     0F2F  2F2B               	goto	i1l77
  6611     0F30                     u107_20:
  6612     0F30                     i1l1679:
  6613                           
  6614                           ;mcc_generated_files/eusart.c: 138:     TXREG = txData;
  6615     0F30  0870               	movf	EUSART_Write@txData,w
  6616     0F31  0023               	movlb	3	; select bank3
  6617     0F32  009A               	movwf	26	;volatile
  6618     0F33                     i1l80:
  6619     0F33  0008               	return
  6620     0F34                     __end_of_EUSART_Write:
  6621     007E                     btemp	set	126	;btemp
  6622     007E                     int$flags	set	126
  6623     007E                     wtemp0	set	126
  6624                           
  6625                           	psect	config
  6626                           
  6627                           ;Config register CONFIG1 @ 0x8007
  6628                           ;	Oscillator Selection
  6629                           ;	FOSC = INTOSC, INTOSC oscillator: I/O function on CLKIN pin
  6630                           ;	Watchdog Timer Enable
  6631                           ;	WDTE = OFF, WDT disabled
  6632                           ;	Power-up Timer Enable
  6633                           ;	PWRTE = OFF, PWRT disabled
  6634                           ;	MCLR Pin Function Select
  6635                           ;	MCLRE = ON, MCLR/VPP pin function is MCLR
  6636                           ;	Flash Program Memory Code Protection
  6637                           ;	CP = OFF, Program memory code protection is disabled
  6638                           ;	Data Memory Code Protection
  6639                           ;	CPD = OFF, Data memory code protection is disabled
  6640                           ;	Brown-out Reset Enable
  6641                           ;	BOREN = ON, Brown-out Reset enabled
  6642                           ;	Clock Out Enable
  6643                           ;	CLKOUTEN = OFF, CLKOUT function is disabled. I/O or oscillator function on the CLKOUT 
      +                          pin
  6644                           ;	Internal/External Switchover
  6645                           ;	IESO = ON, Internal/External Switchover mode is enabled
  6646                           ;	Fail-Safe Clock Monitor Enable
  6647                           ;	FCMEN = ON, Fail-Safe Clock Monitor is enabled
  6648     8007                     	org	32775
  6649     8007  3FE4               	dw	16356
  6650                           
  6651                           ;Config register CONFIG2 @ 0x8008
  6652                           ;	Flash Memory Self-Write Protection
  6653                           ;	WRT = OFF, Write protection off
  6654                           ;	PLL Enable
  6655                           ;	PLLEN = ON, 4x PLL enabled
  6656                           ;	Stack Overflow/Underflow Reset Enable
  6657                           ;	STVREN = ON, Stack Overflow or Underflow will cause a Reset
  6658                           ;	Brown-out Reset Voltage Selection
  6659                           ;	BORV = LO, Brown-out Reset Voltage (Vbor), low trip point selected.
  6660                           ;	In-Circuit Debugger Mode
  6661                           ;	DEBUG = 0x1, unprogrammed default
  6662                           ;	Low-Voltage Programming Enable
  6663                           ;	LVP = ON, Low-voltage programming enabled
  6664     8008                     	org	32776
  6665     8008  3FFF               	dw	16383

Data Sizes:
    Strings     0
    Constant    0
    Data        0
    BSS         26
    Persistent  32
    Stack       0

Auto Spaces:
    Space          Size  Autos    Used
    COMMON           14      6      10
    BANK0            80     76      80
    BANK1            80     25      43
    BANK2            80      0       0
    BANK3            80      0       0
    BANK4            48      0       0

Pointer List with Targets:

    ADC_InterruptHandler	PTR FTN()void  size(2) Largest target is 1
		 -> NULL(), 

    EUSART_ErrorHandler	PTR FTN()void  size(2) Largest target is 1
		 -> EUSART_DefaultErrorHandler(), NULL(), 

    EUSART_FramingErrorHandler	PTR FTN()void  size(2) Largest target is 1
		 -> EUSART_DefaultFramingErrorHandler(), NULL(), 

    EUSART_OverrunErrorHandler	PTR FTN()void  size(2) Largest target is 1
		 -> EUSART_DefaultOverrunErrorHandler(), NULL(), 

    EUSART_SetErrorHandler@interruptHandler	PTR FTN()void  size(2) Largest target is 1
		 -> EUSART_DefaultErrorHandler(), 

    EUSART_SetFramingErrorHandler@interruptHandler	PTR FTN()void  size(2) Largest target is 1
		 -> EUSART_DefaultFramingErrorHandler(), 

    EUSART_SetOverrunErrorHandler@interruptHandler	PTR FTN()void  size(2) Largest target is 1
		 -> EUSART_DefaultOverrunErrorHandler(), 

    TMR1_InterruptHandler	PTR FTN()void  size(2) Largest target is 1
		 -> enviar_tx(), TMR1_DefaultInterruptHandler(), NULL(), 

    TMR1_SetInterruptHandler@InterruptHandler	PTR FTN()void  size(2) Largest target is 1
		 -> enviar_tx(), TMR1_DefaultInterruptHandler(), 


Critical Paths under _main in COMMON

    _main->_ADC_GetConversion
    _main->_EPWM2_LoadDutyValue
    _main->_TMR1_SetInterruptHandler
    ___fltol->__Umul8_16
    ___flmul->__Umul8_16
    _TMR1_Initialize->_TMR1_SetInterruptHandler
    _EUSART_Initialize->_EUSART_SetErrorHandler
    _EUSART_Initialize->_EUSART_SetFramingErrorHandler
    _EUSART_Initialize->_EUSART_SetOverrunErrorHandler

Critical Paths under _INTERRUPT_InterruptManager in COMMON

    _TMR1_CallBack->_enviar_tx
    _enviar_tx->_EUSART_Write

Critical Paths under _main in BANK0

    _main->___flmul
    ___fltol->___fldiv
    ___flmul->___fltol
    ___fldiv->___xxtofl

Critical Paths under _INTERRUPT_InterruptManager in BANK0

    None.

Critical Paths under _main in BANK1

    None.

Critical Paths under _INTERRUPT_InterruptManager in BANK1

    None.

Critical Paths under _main in BANK2

    None.

Critical Paths under _INTERRUPT_InterruptManager in BANK2

    None.

Critical Paths under _main in BANK3

    None.

Critical Paths under _INTERRUPT_InterruptManager in BANK3

    None.

Critical Paths under _main in BANK4

    None.

Critical Paths under _INTERRUPT_InterruptManager in BANK4

    None.

Call Graph Tables:

 ---------------------------------------------------------------------------------
 (Depth) Function   	        Calls       Base Space   Used Autos Params    Refs
 ---------------------------------------------------------------------------------
 (0) _main                                                25    25      0    8754
                                              0 BANK1     25    25      0
                  _ADC_GetConversion
                _EPWM2_LoadDutyValue
                        _EUSART_Read
                 _EUSART_is_rx_ready
                  _SYSTEM_Initialize
           _TMR1_SetInterruptHandler
                            ___fldiv
                            ___flmul
                            ___fltol
                           ___xxtofl
 ---------------------------------------------------------------------------------
 (1) ___xxtofl                                            14    10      4    1106
                                              0 BANK0     14    10      4
 ---------------------------------------------------------------------------------
 (1) ___fltol                                             10     6      4     877
                                             40 BANK0     10     6      4
                          __Umul8_16 (ARG)
                            ___fldiv (ARG)
                           ___xxtofl (ARG)
 ---------------------------------------------------------------------------------
 (1) ___flmul                                             26    18      8    3893
                                             50 BANK0     26    18      8
                          __Umul8_16
                            ___fldiv (ARG)
                            ___fltol (ARG)
                           ___xxtofl (ARG)
 ---------------------------------------------------------------------------------
 (2) __Umul8_16                                            9     7      2     980
                                              4 COMMON     2     0      2
                                              0 BANK0      7     7      0
 ---------------------------------------------------------------------------------
 (1) ___fldiv                                             26    18      8    1577
                                             14 BANK0     26    18      8
                           ___xxtofl (ARG)
 ---------------------------------------------------------------------------------
 (1) _SYSTEM_Initialize                                    0     0      0     468
                     _ADC_Initialize
                   _EPWM2_Initialize
                  _EUSART_Initialize
                     _FVR_Initialize
              _OSCILLATOR_Initialize
             _PIN_MANAGER_Initialize
                    _TMR1_Initialize
                    _TMR2_Initialize
                     _WDT_Initialize
 ---------------------------------------------------------------------------------
 (2) _WDT_Initialize                                       0     0      0       0
 ---------------------------------------------------------------------------------
 (2) _TMR2_Initialize                                      0     0      0       0
 ---------------------------------------------------------------------------------
 (2) _TMR1_Initialize                                      0     0      0     174
           _TMR1_SetInterruptHandler
 ---------------------------------------------------------------------------------
 (1) _TMR1_SetInterruptHandler                             2     0      2     174
                                              4 COMMON     2     0      2
 ---------------------------------------------------------------------------------
 (2) _PIN_MANAGER_Initialize                               0     0      0       0
 ---------------------------------------------------------------------------------
 (2) _OSCILLATOR_Initialize                                0     0      0       0
 ---------------------------------------------------------------------------------
 (2) _FVR_Initialize                                       0     0      0       0
 ---------------------------------------------------------------------------------
 (2) _EUSART_Initialize                                    0     0      0     294
             _EUSART_SetErrorHandler
      _EUSART_SetFramingErrorHandler
      _EUSART_SetOverrunErrorHandler
 ---------------------------------------------------------------------------------
 (3) _EUSART_SetOverrunErrorHandler                        2     0      2      98
                                              4 COMMON     2     0      2
 ---------------------------------------------------------------------------------
 (3) _EUSART_SetFramingErrorHandler                        2     0      2      98
                                              4 COMMON     2     0      2
 ---------------------------------------------------------------------------------
 (3) _EUSART_SetErrorHandler                               2     0      2      98
                                              4 COMMON     2     0      2
 ---------------------------------------------------------------------------------
 (2) _EPWM2_Initialize                                     0     0      0       0
 ---------------------------------------------------------------------------------
 (2) _ADC_Initialize                                       0     0      0       0
 ---------------------------------------------------------------------------------
 (1) _EUSART_is_rx_ready                                   0     0      0       0
 ---------------------------------------------------------------------------------
 (1) _EUSART_Read                                          0     0      0       0
 ---------------------------------------------------------------------------------
 (1) _EPWM2_LoadDutyValue                                  4     2      2     152
                                              4 COMMON     2     0      2
                                              0 BANK0      2     2      0
 ---------------------------------------------------------------------------------
 (1) _ADC_GetConversion                                    4     2      2      31
                                              4 COMMON     2     0      2
                                              0 BANK0      2     2      0
 ---------------------------------------------------------------------------------
 Estimated maximum stack depth 3
 ---------------------------------------------------------------------------------
 (Depth) Function   	        Calls       Base Space   Used Autos Params    Refs
 ---------------------------------------------------------------------------------
 (4) _INTERRUPT_InterruptManager                           0     0      0     396
                           _TMR1_ISR
 ---------------------------------------------------------------------------------
 (5) _TMR1_ISR                                             0     0      0     396
                      _TMR1_CallBack
                    _TMR1_WriteTimer
 ---------------------------------------------------------------------------------
 (6) _TMR1_WriteTimer                                      2     0      2     240
                                              0 COMMON     2     0      2
 ---------------------------------------------------------------------------------
 (6) _TMR1_CallBack                                        0     0      0     156
                                NULL *
       _TMR1_DefaultInterruptHandler *
                          _enviar_tx *
 ---------------------------------------------------------------------------------
 (7) _enviar_tx                                            3     3      0     156
                                              1 COMMON     3     3      0
                       _EUSART_Write
 ---------------------------------------------------------------------------------
 (8) _EUSART_Write                                         1     1      0      22
                                              0 COMMON     1     1      0
 ---------------------------------------------------------------------------------
 (7) _TMR1_DefaultInterruptHandler                         0     0      0       0
 ---------------------------------------------------------------------------------
 (7) NULL(Fake)                                            0     0      0       0
 ---------------------------------------------------------------------------------
 Estimated maximum stack depth 8
 ---------------------------------------------------------------------------------

 Call Graph Graphs:

 _main (ROOT)
   _ADC_GetConversion
   _EPWM2_LoadDutyValue
   _EUSART_Read
   _EUSART_is_rx_ready
   _SYSTEM_Initialize
     _ADC_Initialize
     _EPWM2_Initialize
     _EUSART_Initialize
       _EUSART_SetErrorHandler
       _EUSART_SetFramingErrorHandler
       _EUSART_SetOverrunErrorHandler
     _FVR_Initialize
     _OSCILLATOR_Initialize
     _PIN_MANAGER_Initialize
     _TMR1_Initialize
       _TMR1_SetInterruptHandler
     _TMR2_Initialize
     _WDT_Initialize
   _TMR1_SetInterruptHandler
   ___fldiv
     ___xxtofl (ARG)
   ___flmul
     __Umul8_16
     ___fldiv (ARG)
     ___fltol (ARG)
       __Umul8_16 (ARG)
       ___fldiv (ARG)
       ___xxtofl (ARG)
     ___xxtofl (ARG)
   ___fltol
   ___xxtofl

 _INTERRUPT_InterruptManager (ROOT)
   _TMR1_ISR
     _TMR1_CallBack
       NULL(Fake) *
       _TMR1_DefaultInterruptHandler *
       _enviar_tx *
         _EUSART_Write
     _TMR1_WriteTimer

 Address spaces:
Name               Size   Autos  Total    Cost      Usage
BIGRAM             170      0       0       0        0.0%
EEDATA             100      0       0       0        0.0%
NULL                 0      0       0       0        0.0%
CODE                 0      0       0       0        0.0%
BITCOMMON            E      0       0       1        0.0%
BITSFR0              0      0       0       1        0.0%
SFR0                 0      0       0       1        0.0%
COMMON               E      6       A       2       71.4%
BITSFR1              0      0       0       2        0.0%
SFR1                 0      0       0       2        0.0%
BITSFR2              0      0       0       3        0.0%
SFR2                 0      0       0       3        0.0%
STACK                0      0       0       3        0.0%
BITSFR3              0      0       0       4        0.0%
SFR3                 0      0       0       4        0.0%
ABS                  0      0      85       4        0.0%
BITBANK0            50      0       0       5        0.0%
BITSFR4              0      0       0       5        0.0%
SFR4                 0      0       0       5        0.0%
BANK0               50     4C      50       6      100.0%
BITSFR5              0      0       0       6        0.0%
SFR5                 0      0       0       6        0.0%
BITBANK1            50      0       0       7        0.0%
BITSFR6              0      0       0       7        0.0%
SFR6                 0      0       0       7        0.0%
BANK1               50     19      2B       8       53.8%
BITSFR7              0      0       0       8        0.0%
SFR7                 0      0       0       8        0.0%
BITBANK2            50      0       0       9        0.0%
BITSFR8              0      0       0       9        0.0%
SFR8                 0      0       0       9        0.0%
BANK2               50      0       0      10        0.0%
BITSFR9              0      0       0      10        0.0%
SFR9                 0      0       0      10        0.0%
BITBANK3            50      0       0      11        0.0%
BITSFR10             0      0       0      11        0.0%
SFR10                0      0       0      11        0.0%
BANK3               50      0       0      12        0.0%
BITSFR11             0      0       0      12        0.0%
SFR11                0      0       0      12        0.0%
BITBANK4            30      0       0      13        0.0%
BITSFR12             0      0       0      13        0.0%
SFR12                0      0       0      13        0.0%
BANK4               30      0       0      14        0.0%
BITSFR13             0      0       0      14        0.0%
SFR13                0      0       0      14        0.0%
BITSFR14             0      0       0      15        0.0%
SFR14                0      0       0      15        0.0%
DATA                 0      0      85      15        0.0%
BITSFR15             0      0       0      16        0.0%
SFR15                0      0       0      16        0.0%
BITSFR16             0      0       0      17        0.0%
SFR16                0      0       0      17        0.0%
BITSFR17             0      0       0      18        0.0%
SFR17                0      0       0      18        0.0%
BITSFR18             0      0       0      19        0.0%
SFR18                0      0       0      19        0.0%
BITSFR19             0      0       0      20        0.0%
SFR19                0      0       0      20        0.0%
BITSFR20             0      0       0      21        0.0%
SFR20                0      0       0      21        0.0%
BITSFR21             0      0       0      22        0.0%
SFR21                0      0       0      22        0.0%
BITSFR22             0      0       0      23        0.0%
SFR22                0      0       0      23        0.0%
BITSFR23             0      0       0      24        0.0%
SFR23                0      0       0      24        0.0%
BITSFR24             0      0       0      25        0.0%
SFR24                0      0       0      25        0.0%
BITSFR25             0      0       0      26        0.0%
SFR25                0      0       0      26        0.0%
BITSFR26             0      0       0      27        0.0%
SFR26                0      0       0      27        0.0%
BITSFR27             0      0       0      28        0.0%
SFR27                0      0       0      28        0.0%
BITSFR28             0      0       0      29        0.0%
SFR28                0      0       0      29        0.0%
BITSFR29             0      0       0      30        0.0%
SFR29                0      0       0      30        0.0%
BITSFR30             0      0       0      31        0.0%
SFR30                0      0       0      31        0.0%
BITSFR31             0      0       0      32        0.0%
SFR31                0      0       0      32        0.0%


Microchip Technology PIC Macro Assembler V2.46 build 20240104201356 
Symbol Table                                                                                   Mon Jul 29 09:07:59 2024

                                            l7 0EF2                                   ___fldiv@aexp 0047  
                                 ___fldiv@bexp 0046                                   ___fldiv@sign 003F  
                                           l61 0EFB                                             l53 07DF  
                                           l70 0F5A                                             l74 0F68  
                                           l92 0F07                                             l95 0F0D  
                                           l98 0F01                         __end_of_FVR_Initialize 0EF3  
                          __Umul8_16@word_mpld 0024                                            l201 0F91  
                                          l132 0F3A                                            l135 0F3F  
                                          l129 0FE1                                            l241 0416  
                                          l170 07F5                                            l138 0EF6  
                                          l155 0F21                                            l244 0498  
                                          l173 07FD                                            l350 0FA9  
                                          l272 0FC5                                            l269 0F59  
                                          l285 0F29                                            l386 0F13  
                                          l740 074B                                            l733 0760  
                                          l743 0760                                            l920 063D  
                                          l912 05CA                                            l917 0616  
                                          l918 0630                                            l942 01EA  
                                          l936 026A                                            l955 07AD  
                                          l948 025E                                            l980 0668  
                                          l957 07BD                                            l982 06EF  
                                          l896 04EC                                            l993 06BB  
                                          l898 0644                                            l994 06C7  
                                          l986 06A1                                            _PR2 001B  
                              _timer1ReloadVal 0076                                            _vTx 00C1  
               ?_EUSART_SetFramingErrorHandler 0074                                _TMR2_Initialize 0F22  
                                          wreg 0009                       __end_of_EPWM2_Initialize 0F5A  
                                 ___flmul@aexp 0060                                   ___flmul@bexp 0065  
                                 ___flmul@sign 005F                                   ___flmul@temp 006A  
                                 ___flmul@prod 0066                                   ?_EUSART_Read 0070  
                                 ___fltol@exp1 0051                                           l2001 05B3  
                                         l2011 05DC                                           l2003 05C7  
                                         l2021 0624                                           l2013 05E0  
                                         l2031 0639                                           l2023 0627  
                                         l2015 05F8                                           l2007 05CF  
                                         l2025 062F                                           l2009 05D4  
                                         l2017 05FC                                           l2027 0633  
                                         l2019 0609                                           l2029 0637  
                                         l2311 07F9                                           l2303 07E2  
                                         l2305 07EE                                           l2401 00AA  
                                         l2307 07EF                                           l2315 0FAA  
                                         l2411 0101                                           l2403 00C2  
                                         l2331 071F                                           l2323 0703  
                                         l2309 07F3                                           l2421 012C  
                                         l2413 0108                                           l2405 00CF  
                                         l2333 0723                                           l2341 073B  
                                         l2325 0714                                           l2317 06F0  
                                         l2501 0670                                           l1711 07C9  
                                         l2431 0174                                           l2423 013E  
                                         l2415 0113                                           l2407 00E7  
                                         l2351 0755                                           l2327 0715  
                                         l2319 06FA                                           l2511 068E  
                                         l1713 07D0                                           l1721 0F7D  
                                         l1705 0F0E                                           l2441 01BA  
                                         l2433 0189                                           l2425 0145  
                                         l2417 011A                                           l2409 00F4  
                                         l2361 003B                                           l2353 0030  
                                         l2329 071D                                           l2521 06B5  
                                         l2513 0692                                           l2505 0679  
                                         l1715 07D7                                           l1707 0EEF  
                                         l1731 0F8C                                           l1723 0F80  
                                         l2291 079E                                           l2451 01CE  
                                         l2443 01BE                                           l2435 01A0  
                                         l2427 0157                                           l2419 0125  
                                         l2371 0057                                           l2363 0040  
                                         l2355 0034                                           l2347 0742  
                                         l2339 072B                                           l2531 06E6  
                                         l2523 06BF                                           l2515 069A  
                                         l2507 067C                                           l1717 07DE  
                                         l1709 07BE                                           l1733 0F8F  
                                         l1725 0F82                                           l1741 0EF3  
                                         l1901 04A1                                           l2293 07A5  
                                         l2461 01EF                                           l2453 01CF  
                                         l2445 01BF                                           l2437 01A7  
                                         l2429 0162                                           l2381 0068  
                                         l2373 005C                                           l2365 0045  
                                         l2357 0036                                           l2349 0750  
                                         l2533 06E7                                           l2525 06C9  
                                         l2517 06A8                                           l2509 0687  
                                         l2541 026F                                           l1831 0F67  
                                         l1823 0F5A                                           l1751 0F55  
                                         l1743 0F4D                                           l1735 0F34  
                                         l1727 0F85                                           l1719 0F7A  
                                         l1911 04B8                                           l1903 04A5  
                                         l2295 07A9                                           l2463 01F4  
                                         l2471 021C                                           l2455 01D3  
                                         l2447 01C6                                           l2439 01B3  
                                         l2391 0084                                           l2383 006D  
                                         l2375 005E                                           l2367 004D  
                                         l2359 003A                                           l2527 06DD  
                                         l2519 06B1                                           l2551 0292  
                                         l2543 0277                                           l1825 0F5F  
                                         l1761 0F1E                                           l1753 0F56  
                                         l1745 0F50                                           l1681 0F02  
                                         l1737 0F37                                           l1729 0F8A  
                                         l1921 04CA                                           l1913 04B9  
                                         l1905 04A6                                           l2297 07B4  
                                         l2289 079C                                           l2481 024C  
                                         l2473 0229                                           l2465 01FC  
                                         l2457 01E7                                           l2449 01CA  
                                         l2393 0089                                           l2385 0075  
                                         l2377 0062                                           l2369 004F  
                                         l2529 06E2                                           l2561 03B3  
                                         l2553 02C9                                           l2545 0280  
                                         l2537 026B                                           l1827 0F60  
                                         l1819 0EF7                                           l1755 0F57  
                                         l1747 0F51                                           l1683 0F08  
                                         l1739 0F38                                           l1771 0F92  
                                         l1763 0F22                                           l1835 0FC6  
                                         l1931 04E1                                           l1923 04CE  
                                         l1907 04AB                                           l1915 04BB  
                                         l2299 07B9                                           l2483 0257  
                                         l2475 0233                                           l2467 0200  
                                         l2387 0077                                           l2379 0063  
                                         l2571 03FB                                           l2563 03F0  
                                         l2555 0304                                           l2547 0280  
                                         l2539 026E                                           l1829 0F65  
                                         l1757 0F1A                                           l1749 0F53  
                                         l1685 0EFC                                           l1781 0F9D  
                                         l1773 0F94                                           l1765 0F25  
                                         l1941 0504                                           l1933 04E2  
                                         l1925 04CF                                           l1917 04C3  
                                         l1909 04B0                                           l2485 025B  
                                         l2477 0241                                           l2469 0218  
                                         l2397 0092                                           l2389 007F  
                                         l2493 0647                                           l2581 0432  
                                         l2573 0404                                           l2565 03F8  
                                         l2557 033B                                           l2549 0289  
                                         l1759 0F1D                                           l1783 0F9F  
                                         l1775 0F96                                           l1767 0F26  
                                         l1951 051B                                           l1927 04D4  
                                         l1935 04E4                                           l1919 04C8  
                                         l2487 025C                                           l2479 024A  
                                         l2399 009D                                           l2495 064C  
                                         l2591 0453                                           l2583 0435  
                                         l2575 0409                                           l2559 0376  
                                         l1785 0FA6                                           l1777 0F98  
                                         l1769 0F27                                           l1961 0545  
                                         l1953 052B                                           l1937 04F4  
                                         l1945 050D                                           l1929 04D9  
                                         l2489 0262                                           l2497 0650  
                                         l2593 0459                                           l2585 0436  
                                         l2577 041B                                           l1779 0F99  
                                         l1963 054A                                           l1971 0564  
                                         l1955 0533                                           l1947 0512  
                                         l1939 0500                                           l2499 0660  
                                         l2587 043C                                           l2579 042D  
                                         l1981 0589                                           l1973 0576  
                                         l1965 0558                                           l1957 053B  
                                         l2589 044B                                           l1991 059F  
                                         l1983 0591                                           l1975 0577  
                                         l1967 055C                                           l1959 0543  
                                         l1993 05A6                                           l1985 0593  
                                         l1977 057F                                           l1969 055D  
                                         l1897 049B                                           l1987 059A  
                                         l1995 05AA                                           l1979 0583  
                                         l1899 049F                                           l1997 05AE  
                                         l1989 059E                                           l1999 05AF  
                                         u1110 0F3F                                           u1111 0F3E  
                                         u2100 07A9                                           u2101 07A8  
                                         u1400 054A                                           u1320 04A5  
                                         u2120 07B9                                           u2200 073A  
                                         u1401 0549                                           u1321 04A4  
                                         u2121 07B8                                           u2201 0739  
                                         u2130 07F9                                           u1170 0F5F  
                                         u1330 04AB                                           u2210 0741  
                                         u2131 07F8                                           u1171 0F5E  
                                         u1331 04AA                                           u2115 07AE  
                                         u2211 0740                                           u1180 0F65  
                                         u1340 04B0                                           u2300 006D  
                                         u1181 0F64                                           u1341 04AF  
                                         u2301 006C                                           _LATA 010C  
                                         u1510 05AE                                           u1430 055C  
                                         u1350 04CE                                           u2310 0084  
                                         u2230 0750                                           u2150 06FA  
                                         _LATB 010D                                           u1511 05AD  
                                         u1431 055B                                           u1415 054B  
                                         u1351 04CD                                           u2311 0083  
                                         u2231 074F                                           u2151 06F9  
                                         u1600 0637                                           u1520 05B3  
                                         u1360 04D4                                           u2320 0089  
                                         u2240 0755                                           u2160 0710  
                                         u2145 0FBB                                           u1601 0636  
                                         u1521 05B2                                           u1505 05A0  
                                         u1425 0552                                           u1361 04D3  
                                         u2321 0088                                           u2241 0754  
                                         u2225 0743                                           u1530 05C7  
                                         u1450 0576                                           u1370 04D9  
                                         u2410 01CE                                           u2250 003A  
                                         u2170 0723                                           u1531 05C6  
                                         u1451 0575                                           u1371 04D8  
                                         u2411 01CD                                           u2251 0039  
                                         u2171 0722                                           u1540 05CE  
                                         u1460 0589                                           u1380 04F4  
                                         u2500 025B                                           u2420 01D3  
                                         u2260 0040                                           u2180 072A  
                                         u1541 05CD                                           u1461 0588  
                                         u1445 055E                                           u1381 04F3  
                                         u2501 025A                                           u2421 01D2  
                                         u2405 01C0                                           u2261 003F  
                                         u2181 0729                                           u2165 070C  
                                         u1550 05D4                                           u1470 0591  
                                         u1390 0512                                           u2430 01E7  
                                         u2350 017F                                           u2270 0045  
                                         u2510 064C                                           u1551 05D3  
                                         u1471 0590                                           u1455 0572  
                                         u1391 0511                                           u2431 01E6  
                                         u2335 0102                                           u2271 0044  
                                         u2511 064B                                           u1560 05E0  
                                         u2440 01EE                                           u2360 0196  
                                         u2280 0062                                           u2600 06BB  
                                         u2520 0650                                           u1561 05DF  
                                         u2441 01ED                                           u2345 012D  
                                         u2281 0061                                           u2601 06BA  
                                         u2521 064F                                           u1570 05EE  
                                         u1490 059E                                           u2450 01F4  
                                         u2290 0068                                           u2610 06BF  
                                         u2530 0670                                           u1491 059D  
                                         u2451 01F3                                           u2355 017B  
                                         u2291 0067                                           u2195 072C  
                                         u2611 06BE                                           u2531 066F  
                                         u1580 0609                                           u2460 0200  
                                         u2620 06D3                                           u2700 0459  
                                         u1581 0608                                           u1485 0594  
                                         u2461 01FF                                           u2365 0192  
                                         u2701 0458                                           u1590 0624  
                                         u2470 020E                                           u2390 01BE  
                                         u2630 06E2                                           u2550 068D  
                                         u1591 0623                                           u1575 05EA  
                                         u2391 01BD                                           u2375 01A1  
                                         u2631 06E1                                           u2551 068C  
                                         u2480 0229                                           u2640 06E6  
                                         u1585 0605                                           u2481 0228  
                                         u2385 01B4                                           u2641 06E5  
                                         u2625 06CF                                           u2545 0681  
                                         u2490 0241                                           u2570 06A7  
                                         u2650 03F8                                           u1595 0620  
                                         u2491 0240                                           u2475 020A  
                                         u2571 06A6                                           u2651 03F7  
                                         u2660 0416                                           u2717 07F0  
                                         u2485 0225                                           u2565 069B  
                                         u2661 0415                                           u2590 06B5  
                                         u2670 041B                                           u2495 023D  
                                         u2591 06B4                                           u2671 041A  
                                         u2680 0432                                           u2585 06AB  
                                         u2681 0431                                           u2665 0412  
                                         u2690 043C                                           u2691 043B  
                                         i1l80 0F33                                           i1l77 0F2B  
                                         _PLLR 04D6                                           _TMR2 001A  
                                         _WPUA 020C                                           _WPUB 020D  
                                         _main 026B                                           fsr0h 0005  
                                         fsr1h 0007                                           indf0 0000  
                                         fsr0l 0004                                           indf1 0001  
                                         fsr1l 0006                                           btemp 007E  
                                         start 0019                                ___fldiv@new_exp 0040  
                   ??_TMR1_SetInterruptHandler 0076                                ?_FVR_Initialize 0070  
                                ?_EUSART_Write 0070                  __end_of_OSCILLATOR_Initialize 0F40  
                                ___fltol@sign1 0050                                          ?_main 0070  
                              __end_of___fldiv 0645                                __end_of___flmul 026B  
                              __end_of___fltol 0761                                          _T1CON 0018  
                                        _T2CON 001C                                          i1l321 0017  
                                        i1l235 0799                                          i1l364 0F79  
                                        i1l383 0F4C                                          i1l379 0FFF  
                                        i1l389 07FE                                          _RCREG 0199  
                                        _RCSTA 019D                                          _TMR1H 0017  
                                        _TMR1L 0016                                          _TRISA 008C  
                                        _TRISB 008D                                          _TXREG 019A  
                                        _TXSTA 019E                               __end_of_TMR1_ISR 1000  
                               _WDT_Initialize 0EF3                                          main@i 00B7  
                      __end_of_TMR1_Initialize 0FAA                                          pclath 000A  
                                        status 0003                                          wtemp0 007E  
                                main@adc_v_lum 00A7                                _TMR1_WriteTimer 0F69  
                              __initialization 001B                                   __end_of_main 049B  
                               ??_EUSART_Write 0070                        __end_of_TMR2_Initialize 0F2A  
                  ?_INTERRUPT_InterruptManager 0070                                         ??_main 00A0  
                       __end_of_WDT_Initialize 0EF7              _EUSART_DefaultFramingErrorHandler 0000  
                                       _ADCON0 009D                                         _ADCON1 009E  
                   _EUSART_OverrunErrorHandler 00C7                                         _ADRESH 009C  
                                       _ADRESL 009B                                         _CCPR2H 0299  
                                       _CCPR2L 0298                                         _ANSELA 018C  
                                       _ANSELB 018D                     __end_of_EUSART_is_rx_ready 0EFC  
                                       _BORCON 0116                                         _T1GCON 0019  
                                       u110_20 0799                                         u110_21 0798  
                      TMR1_WriteTimer@timerVal 0070                                         u110_25 0795  
                                       u112_20 0F6E                                         u112_21 0F6D  
                                       i1l1701 0788                                         i1l1703 078C  
                                       u113_20 0F47                                         u121_20 0FF9  
                                       u113_21 0F46                                         i1l1801 0F40  
                                       u121_21 0FF8                                         i1l2281 000A  
                                       i1l1803 0F47                                         i1l2283 000F  
                                       i1l2285 0014                                         i1l2279 0006  
                                       i1l1851 0FE2                                         i1l1677 0F2B  
                                       i1l1853 0FE4                                         i1l1679 0F30  
                                       i1l1695 0768                                         i1l1687 0761  
                                       i1l1791 0F6F                                         i1l1855 0FEB  
                                       u107_20 0F30                                         u107_21 0F2F  
                                       i1l1697 0775                                         i1l1689 0766  
                                       i1l1793 0F71                                         i1l1857 0FF9  
                                       i1l1699 0780                                         i1l1795 0F73  
                                       i1l1787 0F69                                         i1l1859 0FFC  
                                       i1l1789 0F6E                                         i1l1797 0F75  
                                       i1l1799 0F77                                         u108_20 0766  
                                       u108_21 0765                                         u109_20 0775  
                                       u109_21 0774                                         u109_25 0771  
                                       u207_20 000A                                         u207_21 0009  
                                       u208_20 000F                                         u208_21 000E  
                                       u209_20 0014                                         u209_21 0013  
                                       _FVRCON 0117                                         _OSCCON 0099  
                                       _SPBRGH 019C                                         _SPBRGL 019B  
                                       _WDTCON 0097                               __end_of___xxtofl 06F0  
         __end_of_TMR1_DefaultInterruptHandler 07FF                   _TMR1_DefaultInterruptHandler 07FE  
                                 _CCPTMRS0bits 029E                                      ??___fldiv 0036  
                                    ??___flmul 005A                                      ??___fltol 004C  
                              ?_WDT_Initialize 0070                       ADC_GetConversion@channel 0021  
                          _EPWM2_LoadDutyValue 0FAA       TMR1_SetInterruptHandler@InterruptHandler 0074  
                      __end_of_TMR1_WriteTimer 0F7A                                 main@adc_v_temp 00A5  
                        __end_of_TMR1_CallBack 0F4D                               ?_TMR1_Initialize 0070  
                                 ___xxtofl@arg 002A                                   ___xxtofl@exp 0029  
                            _SYSTEM_Initialize 0FC6                                   ___xxtofl@val 0020  
                      __end_of__initialization 002C                             ?_SYSTEM_Initialize 0070  
                                   ___fltol@f1 0048                                 __pcstackCOMMON 0070  
                         ?_EPWM2_LoadDutyValue 0074                            ??_SYSTEM_Initialize 0076  
                                    ?_TMR1_ISR 0070                  ?_TMR1_DefaultInterruptHandler 0070  
                             ?_TMR2_Initialize 0070                                 _OPTION_REGbits 0095  
                            ?_EPWM2_Initialize 0070                ??_EUSART_SetOverrunErrorHandler 0076  
                    __end_of_SYSTEM_Initialize 0FE2                             ??_EPWM2_Initialize 0074  
                                   __pbssBANK0 006C                                     __pbssBANK1 00B9  
                         __end_of_EUSART_Write 0F34                              __end_of__Umul8_16 07BE  
                             ??_FVR_Initialize 0074                                     __pmaintext 026B  
                        ??_EPWM2_LoadDutyValue 0020                                     ??_TMR1_ISR 0074  
                                   __pintentry 0004                                        _CCP2CON 029A  
                                      _ECCP2AS 029C                                        _BAUDCON 019F  
                                      _APFCON0 011D                                        _APFCON1 011E  
                                    ?___xxtofl 0020                                        _OSCTUNE 0098  
                                      _PWM2CON 029B                       ??_EUSART_SetErrorHandler 0076  
                             ?_TMR1_WriteTimer 0070                           _ADC_InterruptHandler 00C3  
                                      ___fldiv 049B                                        ___flmul 0030  
                                      ___fltol 06F0                                        __ptext1 0645  
                                      __ptext2 06F0                                        __ptext3 0030  
                                      __ptext4 079A                                        __ptext5 049B  
                                      __ptext6 0FC6                                        __ptext7 0EF3  
                                      __ptext8 0F22                                        __ptext9 0F92  
                            __end_of_enviar_tx 079A                 ??_TMR1_DefaultInterruptHandler 0070  
                                    _T1CONbits 0018                          _OSCILLATOR_Initialize 0F34  
                                    _T2CONbits 001C                                     ??___xxtofl 0024  
                     ??_PIN_MANAGER_Initialize 0074                      ?_TMR1_SetInterruptHandler 0074  
                                      clrloop0 0F15                           end_of_initialization 002C  
        __end_of_EUSART_SetOverrunErrorHandler 0F0E                  _EUSART_SetOverrunErrorHandler 0F08  
                            _EUSART_Initialize 07BE                             ?_EUSART_Initialize 0070  
                                    _RCSTAbits 019D                             _EUSART_is_rx_ready 0EF7  
                          ??_EUSART_Initialize 0076                               ??_WDT_Initialize 0074  
                          ?_EUSART_is_rx_ready 0070                                  ___xxtofl@sign 0028  
                                  ___fldiv@grs 0042                                    ___fldiv@rem 003B  
                                  ___flmul@grs 0061                      __end_of_EUSART_Initialize 07E0  
                         ??_EUSART_is_rx_ready 0074                                      _TXSTAbits 019E  
                                   main@duty_c 00A9                     _EUSART_DefaultErrorHandler 0000  
                                 _EUSART_Write 0F2A                                 _ADC_Initialize 0F1A  
                       ?_OSCILLATOR_Initialize 0070                            start_initialization 001B  
                                ??_EUSART_Read 0074                                     enviar_tx@i 0072  
               ?_EUSART_SetOverrunErrorHandler 0074                     _EUSART_FramingErrorHandler 00C9  
                       _EUSART_SetErrorHandler 0EFC                         __end_of_ADC_Initialize 0F22  
                                    __Umul8_16 079A                                      ___fldiv@a 002E  
                                    ___fldiv@b 0032                          TMR1_ISR@CountCallBack 006C  
                                    ___flmul@a 0056                                      ___flmul@b 0052  
                                  __pbssCOMMON 0076                                      ___latbits 0001  
                                __pcstackBANK0 0020                                  __pcstackBANK1 00A0  
                                  _activate_tx 0078                    __end_of_EPWM2_LoadDutyValue 0FC6  
                          __end_of_EUSART_Read 0F69                                      _main$1497 00AF  
                       _PIN_MANAGER_Initialize 0F7A               __end_of_TMR1_SetInterruptHandler 0F14  
                                     ?___fldiv 002E                                       ?___flmul 0052  
                                     ?___fltol 0048                                     ?__Umul8_16 0074  
                              ?_ADC_Initialize 0070                   ??_INTERRUPT_InterruptManager 0074  
                                    _enviar_tx 0761                                  _TMR1_CallBack 0F40  
       EUSART_SetErrorHandler@interruptHandler 0074                                      clear_ram0 0F14  
                                     _PIE1bits 0091                              _eusartRxLastError 0079  
                                     _PIR1bits 0011                ??_EUSART_SetFramingErrorHandler 0076  
            _EUSART_DefaultOverrunErrorHandler 0000                                       _TMR1_ISR 0FE2  
                                     _PSTR2CON 029D                                      _rx_buffer 00BE  
                            ??_TMR1_Initialize 0076                                     _ADCON0bits 009D  
                                    _tx_buffer 00B9                                     ?_enviar_tx 0070  
                                  _EUSART_Read 0F5A                                 ?_TMR1_CallBack 0070  
                            ??_TMR2_Initialize 0074                               _EPWM2_Initialize 0F4D  
                             main@porcent_temp 00B3                              _ADC_GetConversion 07E0  
                      ??_OSCILLATOR_Initialize 0074                                    ??__Umul8_16 0020  
                          _EUSART_ErrorHandler 00C5                             ?_ADC_GetConversion 0074  
                     _TMR1_SetInterruptHandler 0F0E                          _TMR1_InterruptHandler 006E  
                          ??_ADC_GetConversion 0020                                       ___xxtofl 0645  
                                     __ptext10 0F0E                                       __ptext11 0F7A  
                                     __ptext20 0EF7                                       __ptext12 0F34  
                                     __ptext21 0F5A                                       __ptext13 0EEF  
                                   _T1GCONbits 0019                                       __ptext30 0F2A  
                                     __ptext22 0FAA                                       __ptext14 07BE  
                                     __ptext23 07E0                                       __ptext15 0F08  
                                     __ptext16 0F02                                       __ptext25 0FE2  
                                     __ptext17 0EFC                                       __ptext26 0F69  
                                     __ptext18 0F4D                                       __ptext27 0F40  
                                     __ptext19 0F1A                                       __ptext28 07FE  
                                     __ptext29 0761                      __end_of_ADC_GetConversion 07FE  
                      ?_EUSART_SetErrorHandler 0074  EUSART_SetOverrunErrorHandler@interruptHandler 0074  
                                     int$flags 007E             __end_of_INTERRUPT_InterruptManager 0019  
                   _INTERRUPT_InterruptManager 0004                                       main@gain 00AB  
        __end_of_EUSART_SetFramingErrorHandler 0F08                  _EUSART_SetFramingErrorHandler 0F02  
                            ??_TMR1_WriteTimer 0072                                     _INTCONbits 000B  
                                  ??_enviar_tx 0071                                     _FVRCONbits 0117  
                              main@porcent_lum 00B5                                ??_TMR1_CallBack 0074  
                                     intlevel1 0000                   EPWM2_LoadDutyValue@dutyValue 0074  
                      ?_PIN_MANAGER_Initialize 0070                 __end_of_EUSART_SetErrorHandler 0F02  
                             ??_ADC_Initialize 0074  EUSART_SetFramingErrorHandler@interruptHandler 0074  
                               _FVR_Initialize 0EEF                         __Umul8_16@multiplicand 0074  
                           EUSART_Write@txData 0070                 __end_of_PIN_MANAGER_Initialize 0F92  
                         __Umul8_16@multiplier 0026                                _TMR1_Initialize 0F92  
                            __Umul8_16@product 0022  
