

Microchip MPLAB XC8 Assembler V2.46 build 20240104201356 
                                                                                               Mon Aug 05 11:45:43 2024

Microchip MPLAB XC8 C Compiler v2.46 (Free license) build 20240104201356 Og1 
     1                           	processor	16F1827
     2                           	pagewidth 120
     3                           	opt	flic
     4                           	psect	stringtext1,global,class=STRCODE,delta=2,noexec
     5                           	psect	stringtext2,global,class=STRCODE,delta=2,noexec
     6                           	psect	stringtext3,global,class=STRCODE,delta=2,noexec
     7                           	psect	stringtext4,global,class=STRCODE,delta=2,noexec
     8                           	psect	stringtext5,global,class=STRCODE,delta=2,noexec
     9                           	psect	stringtext6,global,class=STRCODE,delta=2,noexec
    10                           	psect	stringtext7,global,class=STRCODE,delta=2,noexec
    11                           	psect	stringtext8,global,class=STRCODE,delta=2,noexec
    12                           	psect	stringtext9,global,class=STRCODE,delta=2,noexec
    13                           	psect	stringtext10,global,class=STRCODE,delta=2,noexec
    14                           	psect	stringtext11,global,class=STRCODE,delta=2,noexec
    15                           	psect	stringtext12,global,class=STRCODE,delta=2,noexec
    16                           	psect	nvBANK0,global,class=BANK0,space=1,delta=1,noexec
    17                           	psect	cinit,global,class=CODE,merge=1,delta=2
    18                           	psect	bssEEDATA,global,class=EEDATA,space=3,delta=2,noexec
    19                           	psect	bssBANK0,global,class=BANK0,space=1,delta=1,noexec
    20                           	psect	clrtext,global,class=CODE,delta=2
    21                           	psect	cstackCOMMON,global,class=COMMON,space=1,delta=1,noexec
    22                           	psect	cstackBANK0,global,class=BANK0,space=1,delta=1,noexec
    23                           	psect	maintext,global,class=CODE,merge=1,split=1,delta=2
    24                           	psect	text1,local,class=CODE,merge=1,delta=2
    25                           	psect	text2,local,class=CODE,merge=1,delta=2
    26                           	psect	text3,local,class=CODE,merge=1,delta=2
    27                           	psect	text4,local,class=CODE,merge=1,delta=2
    28                           	psect	text5,local,class=CODE,merge=1,delta=2
    29                           	psect	text6,local,class=CODE,merge=1,delta=2
    30                           	psect	text7,local,class=CODE,merge=1,delta=2
    31                           	psect	text8,local,class=CODE,merge=1,delta=2
    32                           	psect	text9,local,class=CODE,merge=1,delta=2
    33                           	psect	text10,local,class=CODE,merge=1,delta=2
    34                           	psect	text11,local,class=CODE,merge=1,delta=2
    35                           	psect	text12,local,class=CODE,merge=1,delta=2
    36                           	psect	text13,local,class=CODE,merge=1,delta=2
    37                           	psect	text14,local,class=CODE,merge=1,delta=2
    38                           	psect	text15,local,class=CODE,merge=1,delta=2
    39                           	psect	text16,local,class=CODE,merge=1,delta=2
    40                           	psect	text17,local,class=CODE,merge=1,delta=2
    41                           	psect	text18,local,class=CODE,merge=1,delta=2
    42                           	psect	text19,local,class=CODE,merge=1,delta=2
    43                           	psect	text20,local,class=CODE,merge=1,delta=2
    44                           	psect	text21,local,class=CODE,merge=1,delta=2,group=1
    45                           	psect	text22,local,class=CODE,merge=1,delta=2
    46                           	psect	config,global,abs,ovrld,class=CONFIG,space=4,delta=2,noexec
    47                           	dabs	1,0x7E,2
    48     0000                     
    49                           ; Generated 07/09/2023 GMT
    50                           ; 
    51                           ; Copyright © 2023, Microchip Technology Inc. and its subsidiaries ("Microchip")
    52                           ; All rights reserved.
    53                           ; 
    54                           ; This software is developed by Microchip Technology Inc. and its subsidiaries ("Microch
      +                          ip").
    55                           ; 
    56                           ; Redistribution and use in source and binary forms, with or without modification, are
    57                           ; permitted provided that the following conditions are met:
    58                           ; 
    59                           ;     1. Redistributions of source code must retain the above copyright notice, this lis
      +                          t of
    60                           ;        conditions and the following disclaimer.
    61                           ; 
    62                           ;     2. Redistributions in binary form must reproduce the above copyright notice, this 
      +                          list
    63                           ;        of conditions and the following disclaimer in the documentation and/or other
    64                           ;        materials provided with the distribution. Publication is not required when
    65                           ;        this file is used in an embedded application.
    66                           ; 
    67                           ;     3. Microchip's name may not be used to endorse or promote products derived from th
      +                          is
    68                           ;        software without specific prior written permission.
    69                           ; 
    70                           ; THIS SOFTWARE IS PROVIDED BY MICROCHIP "AS IS" AND ANY EXPRESS OR IMPLIED WARRANTIES,
    71                           ; INCLUDING, BUT NOT LIMITED TO, THE IMPLIED WARRANTIES OF MERCHANTABILITY AND FITNESS F
      +                          OR
    72                           ; PURPOSE ARE DISCLAIMED.  IN NO EVENT SHALL MICROCHIP BE LIABLE FOR ANY DIRECT, INDIREC
      +                          T,
    73                           ; INCIDENTAL, SPECIAL, EXEMPLARY, OR CONSEQUENTIAL DAMAGES (INCLUDING BUT NOT LIMITED TO
    74                           ; PROCUREMENT OF SUBSTITUTE GOODS OR SERVICES; LOSS OF USE, DATA OR PROFITS; OR BUSINESS
    75                           ; INTERRUPTION) HOWSOEVER CAUSED AND ON ANY THEORY OF LIABILITY, WHETHER IN CONTRACT, ST
      +                          RICT
    76                           ; LIABILITY, OR TORT (INCLUDING NEGLIGENCE OR OTHERWISE) ARISING IN ANY WAY OUT OF THE U
      +                          SE OF
    77                           ; THIS SOFTWARE, EVEN IF ADVISED OF THE POSSIBILITY OF SUCH DAMAGE.
    78                           ; 
    79                           ; 
    80                           ; Code-generator required, PIC16F1827 Definitions
    81                           ; 
    82                           ; SFR Addresses
    83     0000                     	;# 
    84     0001                     	;# 
    85     0002                     	;# 
    86     0003                     	;# 
    87     0004                     	;# 
    88     0005                     	;# 
    89     0006                     	;# 
    90     0007                     	;# 
    91     0008                     	;# 
    92     0009                     	;# 
    93     000A                     	;# 
    94     000B                     	;# 
    95     000C                     	;# 
    96     000D                     	;# 
    97     0011                     	;# 
    98     0012                     	;# 
    99     0013                     	;# 
   100     0014                     	;# 
   101     0015                     	;# 
   102     0016                     	;# 
   103     0016                     	;# 
   104     0017                     	;# 
   105     0018                     	;# 
   106     0019                     	;# 
   107     001A                     	;# 
   108     001B                     	;# 
   109     001C                     	;# 
   110     001E                     	;# 
   111     001F                     	;# 
   112     008C                     	;# 
   113     008D                     	;# 
   114     0091                     	;# 
   115     0092                     	;# 
   116     0093                     	;# 
   117     0094                     	;# 
   118     0095                     	;# 
   119     0096                     	;# 
   120     0097                     	;# 
   121     0098                     	;# 
   122     0099                     	;# 
   123     009A                     	;# 
   124     009B                     	;# 
   125     009B                     	;# 
   126     009C                     	;# 
   127     009D                     	;# 
   128     009E                     	;# 
   129     010C                     	;# 
   130     010D                     	;# 
   131     0111                     	;# 
   132     0112                     	;# 
   133     0113                     	;# 
   134     0114                     	;# 
   135     0115                     	;# 
   136     0116                     	;# 
   137     0117                     	;# 
   138     0118                     	;# 
   139     0119                     	;# 
   140     011A                     	;# 
   141     011B                     	;# 
   142     011D                     	;# 
   143     011E                     	;# 
   144     018C                     	;# 
   145     018D                     	;# 
   146     0191                     	;# 
   147     0191                     	;# 
   148     0192                     	;# 
   149     0193                     	;# 
   150     0193                     	;# 
   151     0193                     	;# 
   152     0194                     	;# 
   153     0195                     	;# 
   154     0196                     	;# 
   155     0199                     	;# 
   156     019A                     	;# 
   157     019B                     	;# 
   158     019B                     	;# 
   159     019B                     	;# 
   160     019B                     	;# 
   161     019C                     	;# 
   162     019C                     	;# 
   163     019D                     	;# 
   164     019E                     	;# 
   165     019F                     	;# 
   166     020C                     	;# 
   167     020D                     	;# 
   168     0211                     	;# 
   169     0211                     	;# 
   170     0212                     	;# 
   171     0212                     	;# 
   172     0213                     	;# 
   173     0213                     	;# 
   174     0214                     	;# 
   175     0214                     	;# 
   176     0215                     	;# 
   177     0215                     	;# 
   178     0215                     	;# 
   179     0216                     	;# 
   180     0216                     	;# 
   181     0217                     	;# 
   182     0217                     	;# 
   183     0219                     	;# 
   184     021A                     	;# 
   185     021B                     	;# 
   186     021C                     	;# 
   187     021D                     	;# 
   188     021E                     	;# 
   189     021F                     	;# 
   190     0291                     	;# 
   191     0291                     	;# 
   192     0292                     	;# 
   193     0293                     	;# 
   194     0294                     	;# 
   195     0295                     	;# 
   196     0295                     	;# 
   197     0296                     	;# 
   198     0298                     	;# 
   199     0298                     	;# 
   200     0299                     	;# 
   201     029A                     	;# 
   202     029B                     	;# 
   203     029C                     	;# 
   204     029C                     	;# 
   205     029D                     	;# 
   206     029E                     	;# 
   207     029E                     	;# 
   208     0311                     	;# 
   209     0311                     	;# 
   210     0312                     	;# 
   211     0313                     	;# 
   212     0318                     	;# 
   213     0318                     	;# 
   214     0319                     	;# 
   215     031A                     	;# 
   216     0394                     	;# 
   217     0395                     	;# 
   218     0396                     	;# 
   219     039A                     	;# 
   220     039C                     	;# 
   221     039D                     	;# 
   222     039E                     	;# 
   223     039F                     	;# 
   224     0415                     	;# 
   225     0416                     	;# 
   226     0417                     	;# 
   227     041C                     	;# 
   228     041D                     	;# 
   229     041E                     	;# 
   230     0FE4                     	;# 
   231     0FE5                     	;# 
   232     0FE6                     	;# 
   233     0FE7                     	;# 
   234     0FE8                     	;# 
   235     0FE9                     	;# 
   236     0FEA                     	;# 
   237     0FEB                     	;# 
   238     0FED                     	;# 
   239     0FEE                     	;# 
   240     0FEF                     	;# 
   241     0000                     	;# 
   242     0001                     	;# 
   243     0002                     	;# 
   244     0003                     	;# 
   245     0004                     	;# 
   246     0005                     	;# 
   247     0006                     	;# 
   248     0007                     	;# 
   249     0008                     	;# 
   250     0009                     	;# 
   251     000A                     	;# 
   252     000B                     	;# 
   253     000C                     	;# 
   254     000D                     	;# 
   255     0011                     	;# 
   256     0012                     	;# 
   257     0013                     	;# 
   258     0014                     	;# 
   259     0015                     	;# 
   260     0016                     	;# 
   261     0016                     	;# 
   262     0017                     	;# 
   263     0018                     	;# 
   264     0019                     	;# 
   265     001A                     	;# 
   266     001B                     	;# 
   267     001C                     	;# 
   268     001E                     	;# 
   269     001F                     	;# 
   270     008C                     	;# 
   271     008D                     	;# 
   272     0091                     	;# 
   273     0092                     	;# 
   274     0093                     	;# 
   275     0094                     	;# 
   276     0095                     	;# 
   277     0096                     	;# 
   278     0097                     	;# 
   279     0098                     	;# 
   280     0099                     	;# 
   281     009A                     	;# 
   282     009B                     	;# 
   283     009B                     	;# 
   284     009C                     	;# 
   285     009D                     	;# 
   286     009E                     	;# 
   287     010C                     	;# 
   288     010D                     	;# 
   289     0111                     	;# 
   290     0112                     	;# 
   291     0113                     	;# 
   292     0114                     	;# 
   293     0115                     	;# 
   294     0116                     	;# 
   295     0117                     	;# 
   296     0118                     	;# 
   297     0119                     	;# 
   298     011A                     	;# 
   299     011B                     	;# 
   300     011D                     	;# 
   301     011E                     	;# 
   302     018C                     	;# 
   303     018D                     	;# 
   304     0191                     	;# 
   305     0191                     	;# 
   306     0192                     	;# 
   307     0193                     	;# 
   308     0193                     	;# 
   309     0193                     	;# 
   310     0194                     	;# 
   311     0195                     	;# 
   312     0196                     	;# 
   313     0199                     	;# 
   314     019A                     	;# 
   315     019B                     	;# 
   316     019B                     	;# 
   317     019B                     	;# 
   318     019B                     	;# 
   319     019C                     	;# 
   320     019C                     	;# 
   321     019D                     	;# 
   322     019E                     	;# 
   323     019F                     	;# 
   324     020C                     	;# 
   325     020D                     	;# 
   326     0211                     	;# 
   327     0211                     	;# 
   328     0212                     	;# 
   329     0212                     	;# 
   330     0213                     	;# 
   331     0213                     	;# 
   332     0214                     	;# 
   333     0214                     	;# 
   334     0215                     	;# 
   335     0215                     	;# 
   336     0215                     	;# 
   337     0216                     	;# 
   338     0216                     	;# 
   339     0217                     	;# 
   340     0217                     	;# 
   341     0219                     	;# 
   342     021A                     	;# 
   343     021B                     	;# 
   344     021C                     	;# 
   345     021D                     	;# 
   346     021E                     	;# 
   347     021F                     	;# 
   348     0291                     	;# 
   349     0291                     	;# 
   350     0292                     	;# 
   351     0293                     	;# 
   352     0294                     	;# 
   353     0295                     	;# 
   354     0295                     	;# 
   355     0296                     	;# 
   356     0298                     	;# 
   357     0298                     	;# 
   358     0299                     	;# 
   359     029A                     	;# 
   360     029B                     	;# 
   361     029C                     	;# 
   362     029C                     	;# 
   363     029D                     	;# 
   364     029E                     	;# 
   365     029E                     	;# 
   366     0311                     	;# 
   367     0311                     	;# 
   368     0312                     	;# 
   369     0313                     	;# 
   370     0318                     	;# 
   371     0318                     	;# 
   372     0319                     	;# 
   373     031A                     	;# 
   374     0394                     	;# 
   375     0395                     	;# 
   376     0396                     	;# 
   377     039A                     	;# 
   378     039C                     	;# 
   379     039D                     	;# 
   380     039E                     	;# 
   381     039F                     	;# 
   382     0415                     	;# 
   383     0416                     	;# 
   384     0417                     	;# 
   385     041C                     	;# 
   386     041D                     	;# 
   387     041E                     	;# 
   388     0FE4                     	;# 
   389     0FE5                     	;# 
   390     0FE6                     	;# 
   391     0FE7                     	;# 
   392     0FE8                     	;# 
   393     0FE9                     	;# 
   394     0FEA                     	;# 
   395     0FEB                     	;# 
   396     0FED                     	;# 
   397     0FEE                     	;# 
   398     0FEF                     	;# 
   399     0000                     	;# 
   400     0001                     	;# 
   401     0002                     	;# 
   402     0003                     	;# 
   403     0004                     	;# 
   404     0005                     	;# 
   405     0006                     	;# 
   406     0007                     	;# 
   407     0008                     	;# 
   408     0009                     	;# 
   409     000A                     	;# 
   410     000B                     	;# 
   411     000C                     	;# 
   412     000D                     	;# 
   413     0011                     	;# 
   414     0012                     	;# 
   415     0013                     	;# 
   416     0014                     	;# 
   417     0015                     	;# 
   418     0016                     	;# 
   419     0016                     	;# 
   420     0017                     	;# 
   421     0018                     	;# 
   422     0019                     	;# 
   423     001A                     	;# 
   424     001B                     	;# 
   425     001C                     	;# 
   426     001E                     	;# 
   427     001F                     	;# 
   428     008C                     	;# 
   429     008D                     	;# 
   430     0091                     	;# 
   431     0092                     	;# 
   432     0093                     	;# 
   433     0094                     	;# 
   434     0095                     	;# 
   435     0096                     	;# 
   436     0097                     	;# 
   437     0098                     	;# 
   438     0099                     	;# 
   439     009A                     	;# 
   440     009B                     	;# 
   441     009B                     	;# 
   442     009C                     	;# 
   443     009D                     	;# 
   444     009E                     	;# 
   445     010C                     	;# 
   446     010D                     	;# 
   447     0111                     	;# 
   448     0112                     	;# 
   449     0113                     	;# 
   450     0114                     	;# 
   451     0115                     	;# 
   452     0116                     	;# 
   453     0117                     	;# 
   454     0118                     	;# 
   455     0119                     	;# 
   456     011A                     	;# 
   457     011B                     	;# 
   458     011D                     	;# 
   459     011E                     	;# 
   460     018C                     	;# 
   461     018D                     	;# 
   462     0191                     	;# 
   463     0191                     	;# 
   464     0192                     	;# 
   465     0193                     	;# 
   466     0193                     	;# 
   467     0193                     	;# 
   468     0194                     	;# 
   469     0195                     	;# 
   470     0196                     	;# 
   471     0199                     	;# 
   472     019A                     	;# 
   473     019B                     	;# 
   474     019B                     	;# 
   475     019B                     	;# 
   476     019B                     	;# 
   477     019C                     	;# 
   478     019C                     	;# 
   479     019D                     	;# 
   480     019E                     	;# 
   481     019F                     	;# 
   482     020C                     	;# 
   483     020D                     	;# 
   484     0211                     	;# 
   485     0211                     	;# 
   486     0212                     	;# 
   487     0212                     	;# 
   488     0213                     	;# 
   489     0213                     	;# 
   490     0214                     	;# 
   491     0214                     	;# 
   492     0215                     	;# 
   493     0215                     	;# 
   494     0215                     	;# 
   495     0216                     	;# 
   496     0216                     	;# 
   497     0217                     	;# 
   498     0217                     	;# 
   499     0219                     	;# 
   500     021A                     	;# 
   501     021B                     	;# 
   502     021C                     	;# 
   503     021D                     	;# 
   504     021E                     	;# 
   505     021F                     	;# 
   506     0291                     	;# 
   507     0291                     	;# 
   508     0292                     	;# 
   509     0293                     	;# 
   510     0294                     	;# 
   511     0295                     	;# 
   512     0295                     	;# 
   513     0296                     	;# 
   514     0298                     	;# 
   515     0298                     	;# 
   516     0299                     	;# 
   517     029A                     	;# 
   518     029B                     	;# 
   519     029C                     	;# 
   520     029C                     	;# 
   521     029D                     	;# 
   522     029E                     	;# 
   523     029E                     	;# 
   524     0311                     	;# 
   525     0311                     	;# 
   526     0312                     	;# 
   527     0313                     	;# 
   528     0318                     	;# 
   529     0318                     	;# 
   530     0319                     	;# 
   531     031A                     	;# 
   532     0394                     	;# 
   533     0395                     	;# 
   534     0396                     	;# 
   535     039A                     	;# 
   536     039C                     	;# 
   537     039D                     	;# 
   538     039E                     	;# 
   539     039F                     	;# 
   540     0415                     	;# 
   541     0416                     	;# 
   542     0417                     	;# 
   543     041C                     	;# 
   544     041D                     	;# 
   545     041E                     	;# 
   546     0FE4                     	;# 
   547     0FE5                     	;# 
   548     0FE6                     	;# 
   549     0FE7                     	;# 
   550     0FE8                     	;# 
   551     0FE9                     	;# 
   552     0FEA                     	;# 
   553     0FEB                     	;# 
   554     0FED                     	;# 
   555     0FEE                     	;# 
   556     0FEF                     	;# 
   557     0000                     	;# 
   558     0001                     	;# 
   559     0002                     	;# 
   560     0003                     	;# 
   561     0004                     	;# 
   562     0005                     	;# 
   563     0006                     	;# 
   564     0007                     	;# 
   565     0008                     	;# 
   566     0009                     	;# 
   567     000A                     	;# 
   568     000B                     	;# 
   569     000C                     	;# 
   570     000D                     	;# 
   571     0011                     	;# 
   572     0012                     	;# 
   573     0013                     	;# 
   574     0014                     	;# 
   575     0015                     	;# 
   576     0016                     	;# 
   577     0016                     	;# 
   578     0017                     	;# 
   579     0018                     	;# 
   580     0019                     	;# 
   581     001A                     	;# 
   582     001B                     	;# 
   583     001C                     	;# 
   584     001E                     	;# 
   585     001F                     	;# 
   586     008C                     	;# 
   587     008D                     	;# 
   588     0091                     	;# 
   589     0092                     	;# 
   590     0093                     	;# 
   591     0094                     	;# 
   592     0095                     	;# 
   593     0096                     	;# 
   594     0097                     	;# 
   595     0098                     	;# 
   596     0099                     	;# 
   597     009A                     	;# 
   598     009B                     	;# 
   599     009B                     	;# 
   600     009C                     	;# 
   601     009D                     	;# 
   602     009E                     	;# 
   603     010C                     	;# 
   604     010D                     	;# 
   605     0111                     	;# 
   606     0112                     	;# 
   607     0113                     	;# 
   608     0114                     	;# 
   609     0115                     	;# 
   610     0116                     	;# 
   611     0117                     	;# 
   612     0118                     	;# 
   613     0119                     	;# 
   614     011A                     	;# 
   615     011B                     	;# 
   616     011D                     	;# 
   617     011E                     	;# 
   618     018C                     	;# 
   619     018D                     	;# 
   620     0191                     	;# 
   621     0191                     	;# 
   622     0192                     	;# 
   623     0193                     	;# 
   624     0193                     	;# 
   625     0193                     	;# 
   626     0194                     	;# 
   627     0195                     	;# 
   628     0196                     	;# 
   629     0199                     	;# 
   630     019A                     	;# 
   631     019B                     	;# 
   632     019B                     	;# 
   633     019B                     	;# 
   634     019B                     	;# 
   635     019C                     	;# 
   636     019C                     	;# 
   637     019D                     	;# 
   638     019E                     	;# 
   639     019F                     	;# 
   640     020C                     	;# 
   641     020D                     	;# 
   642     0211                     	;# 
   643     0211                     	;# 
   644     0212                     	;# 
   645     0212                     	;# 
   646     0213                     	;# 
   647     0213                     	;# 
   648     0214                     	;# 
   649     0214                     	;# 
   650     0215                     	;# 
   651     0215                     	;# 
   652     0215                     	;# 
   653     0216                     	;# 
   654     0216                     	;# 
   655     0217                     	;# 
   656     0217                     	;# 
   657     0219                     	;# 
   658     021A                     	;# 
   659     021B                     	;# 
   660     021C                     	;# 
   661     021D                     	;# 
   662     021E                     	;# 
   663     021F                     	;# 
   664     0291                     	;# 
   665     0291                     	;# 
   666     0292                     	;# 
   667     0293                     	;# 
   668     0294                     	;# 
   669     0295                     	;# 
   670     0295                     	;# 
   671     0296                     	;# 
   672     0298                     	;# 
   673     0298                     	;# 
   674     0299                     	;# 
   675     029A                     	;# 
   676     029B                     	;# 
   677     029C                     	;# 
   678     029C                     	;# 
   679     029D                     	;# 
   680     029E                     	;# 
   681     029E                     	;# 
   682     0311                     	;# 
   683     0311                     	;# 
   684     0312                     	;# 
   685     0313                     	;# 
   686     0318                     	;# 
   687     0318                     	;# 
   688     0319                     	;# 
   689     031A                     	;# 
   690     0394                     	;# 
   691     0395                     	;# 
   692     0396                     	;# 
   693     039A                     	;# 
   694     039C                     	;# 
   695     039D                     	;# 
   696     039E                     	;# 
   697     039F                     	;# 
   698     0415                     	;# 
   699     0416                     	;# 
   700     0417                     	;# 
   701     041C                     	;# 
   702     041D                     	;# 
   703     041E                     	;# 
   704     0FE4                     	;# 
   705     0FE5                     	;# 
   706     0FE6                     	;# 
   707     0FE7                     	;# 
   708     0FE8                     	;# 
   709     0FE9                     	;# 
   710     0FEA                     	;# 
   711     0FEB                     	;# 
   712     0FED                     	;# 
   713     0FEE                     	;# 
   714     0FEF                     	;# 
   715     0000                     	;# 
   716     0001                     	;# 
   717     0002                     	;# 
   718     0003                     	;# 
   719     0004                     	;# 
   720     0005                     	;# 
   721     0006                     	;# 
   722     0007                     	;# 
   723     0008                     	;# 
   724     0009                     	;# 
   725     000A                     	;# 
   726     000B                     	;# 
   727     000C                     	;# 
   728     000D                     	;# 
   729     0011                     	;# 
   730     0012                     	;# 
   731     0013                     	;# 
   732     0014                     	;# 
   733     0015                     	;# 
   734     0016                     	;# 
   735     0016                     	;# 
   736     0017                     	;# 
   737     0018                     	;# 
   738     0019                     	;# 
   739     001A                     	;# 
   740     001B                     	;# 
   741     001C                     	;# 
   742     001E                     	;# 
   743     001F                     	;# 
   744     008C                     	;# 
   745     008D                     	;# 
   746     0091                     	;# 
   747     0092                     	;# 
   748     0093                     	;# 
   749     0094                     	;# 
   750     0095                     	;# 
   751     0096                     	;# 
   752     0097                     	;# 
   753     0098                     	;# 
   754     0099                     	;# 
   755     009A                     	;# 
   756     009B                     	;# 
   757     009B                     	;# 
   758     009C                     	;# 
   759     009D                     	;# 
   760     009E                     	;# 
   761     010C                     	;# 
   762     010D                     	;# 
   763     0111                     	;# 
   764     0112                     	;# 
   765     0113                     	;# 
   766     0114                     	;# 
   767     0115                     	;# 
   768     0116                     	;# 
   769     0117                     	;# 
   770     0118                     	;# 
   771     0119                     	;# 
   772     011A                     	;# 
   773     011B                     	;# 
   774     011D                     	;# 
   775     011E                     	;# 
   776     018C                     	;# 
   777     018D                     	;# 
   778     0191                     	;# 
   779     0191                     	;# 
   780     0192                     	;# 
   781     0193                     	;# 
   782     0193                     	;# 
   783     0193                     	;# 
   784     0194                     	;# 
   785     0195                     	;# 
   786     0196                     	;# 
   787     0199                     	;# 
   788     019A                     	;# 
   789     019B                     	;# 
   790     019B                     	;# 
   791     019B                     	;# 
   792     019B                     	;# 
   793     019C                     	;# 
   794     019C                     	;# 
   795     019D                     	;# 
   796     019E                     	;# 
   797     019F                     	;# 
   798     020C                     	;# 
   799     020D                     	;# 
   800     0211                     	;# 
   801     0211                     	;# 
   802     0212                     	;# 
   803     0212                     	;# 
   804     0213                     	;# 
   805     0213                     	;# 
   806     0214                     	;# 
   807     0214                     	;# 
   808     0215                     	;# 
   809     0215                     	;# 
   810     0215                     	;# 
   811     0216                     	;# 
   812     0216                     	;# 
   813     0217                     	;# 
   814     0217                     	;# 
   815     0219                     	;# 
   816     021A                     	;# 
   817     021B                     	;# 
   818     021C                     	;# 
   819     021D                     	;# 
   820     021E                     	;# 
   821     021F                     	;# 
   822     0291                     	;# 
   823     0291                     	;# 
   824     0292                     	;# 
   825     0293                     	;# 
   826     0294                     	;# 
   827     0295                     	;# 
   828     0295                     	;# 
   829     0296                     	;# 
   830     0298                     	;# 
   831     0298                     	;# 
   832     0299                     	;# 
   833     029A                     	;# 
   834     029B                     	;# 
   835     029C                     	;# 
   836     029C                     	;# 
   837     029D                     	;# 
   838     029E                     	;# 
   839     029E                     	;# 
   840     0311                     	;# 
   841     0311                     	;# 
   842     0312                     	;# 
   843     0313                     	;# 
   844     0318                     	;# 
   845     0318                     	;# 
   846     0319                     	;# 
   847     031A                     	;# 
   848     0394                     	;# 
   849     0395                     	;# 
   850     0396                     	;# 
   851     039A                     	;# 
   852     039C                     	;# 
   853     039D                     	;# 
   854     039E                     	;# 
   855     039F                     	;# 
   856     0415                     	;# 
   857     0416                     	;# 
   858     0417                     	;# 
   859     041C                     	;# 
   860     041D                     	;# 
   861     041E                     	;# 
   862     0FE4                     	;# 
   863     0FE5                     	;# 
   864     0FE6                     	;# 
   865     0FE7                     	;# 
   866     0FE8                     	;# 
   867     0FE9                     	;# 
   868     0FEA                     	;# 
   869     0FEB                     	;# 
   870     0FED                     	;# 
   871     0FEE                     	;# 
   872     0FEF                     	;# 
   873     0000                     	;# 
   874     0001                     	;# 
   875     0002                     	;# 
   876     0003                     	;# 
   877     0004                     	;# 
   878     0005                     	;# 
   879     0006                     	;# 
   880     0007                     	;# 
   881     0008                     	;# 
   882     0009                     	;# 
   883     000A                     	;# 
   884     000B                     	;# 
   885     000C                     	;# 
   886     000D                     	;# 
   887     0011                     	;# 
   888     0012                     	;# 
   889     0013                     	;# 
   890     0014                     	;# 
   891     0015                     	;# 
   892     0016                     	;# 
   893     0016                     	;# 
   894     0017                     	;# 
   895     0018                     	;# 
   896     0019                     	;# 
   897     001A                     	;# 
   898     001B                     	;# 
   899     001C                     	;# 
   900     001E                     	;# 
   901     001F                     	;# 
   902     008C                     	;# 
   903     008D                     	;# 
   904     0091                     	;# 
   905     0092                     	;# 
   906     0093                     	;# 
   907     0094                     	;# 
   908     0095                     	;# 
   909     0096                     	;# 
   910     0097                     	;# 
   911     0098                     	;# 
   912     0099                     	;# 
   913     009A                     	;# 
   914     009B                     	;# 
   915     009B                     	;# 
   916     009C                     	;# 
   917     009D                     	;# 
   918     009E                     	;# 
   919     010C                     	;# 
   920     010D                     	;# 
   921     0111                     	;# 
   922     0112                     	;# 
   923     0113                     	;# 
   924     0114                     	;# 
   925     0115                     	;# 
   926     0116                     	;# 
   927     0117                     	;# 
   928     0118                     	;# 
   929     0119                     	;# 
   930     011A                     	;# 
   931     011B                     	;# 
   932     011D                     	;# 
   933     011E                     	;# 
   934     018C                     	;# 
   935     018D                     	;# 
   936     0191                     	;# 
   937     0191                     	;# 
   938     0192                     	;# 
   939     0193                     	;# 
   940     0193                     	;# 
   941     0193                     	;# 
   942     0194                     	;# 
   943     0195                     	;# 
   944     0196                     	;# 
   945     0199                     	;# 
   946     019A                     	;# 
   947     019B                     	;# 
   948     019B                     	;# 
   949     019B                     	;# 
   950     019B                     	;# 
   951     019C                     	;# 
   952     019C                     	;# 
   953     019D                     	;# 
   954     019E                     	;# 
   955     019F                     	;# 
   956     020C                     	;# 
   957     020D                     	;# 
   958     0211                     	;# 
   959     0211                     	;# 
   960     0212                     	;# 
   961     0212                     	;# 
   962     0213                     	;# 
   963     0213                     	;# 
   964     0214                     	;# 
   965     0214                     	;# 
   966     0215                     	;# 
   967     0215                     	;# 
   968     0215                     	;# 
   969     0216                     	;# 
   970     0216                     	;# 
   971     0217                     	;# 
   972     0217                     	;# 
   973     0219                     	;# 
   974     021A                     	;# 
   975     021B                     	;# 
   976     021C                     	;# 
   977     021D                     	;# 
   978     021E                     	;# 
   979     021F                     	;# 
   980     0291                     	;# 
   981     0291                     	;# 
   982     0292                     	;# 
   983     0293                     	;# 
   984     0294                     	;# 
   985     0295                     	;# 
   986     0295                     	;# 
   987     0296                     	;# 
   988     0298                     	;# 
   989     0298                     	;# 
   990     0299                     	;# 
   991     029A                     	;# 
   992     029B                     	;# 
   993     029C                     	;# 
   994     029C                     	;# 
   995     029D                     	;# 
   996     029E                     	;# 
   997     029E                     	;# 
   998     0311                     	;# 
   999     0311                     	;# 
  1000     0312                     	;# 
  1001     0313                     	;# 
  1002     0318                     	;# 
  1003     0318                     	;# 
  1004     0319                     	;# 
  1005     031A                     	;# 
  1006     0394                     	;# 
  1007     0395                     	;# 
  1008     0396                     	;# 
  1009     039A                     	;# 
  1010     039C                     	;# 
  1011     039D                     	;# 
  1012     039E                     	;# 
  1013     039F                     	;# 
  1014     0415                     	;# 
  1015     0416                     	;# 
  1016     0417                     	;# 
  1017     041C                     	;# 
  1018     041D                     	;# 
  1019     041E                     	;# 
  1020     0FE4                     	;# 
  1021     0FE5                     	;# 
  1022     0FE6                     	;# 
  1023     0FE7                     	;# 
  1024     0FE8                     	;# 
  1025     0FE9                     	;# 
  1026     0FEA                     	;# 
  1027     0FEB                     	;# 
  1028     0FED                     	;# 
  1029     0FEE                     	;# 
  1030     0FEF                     	;# 
  1031                           
  1032 ;; Function _EUSART_DefaultFramingErrorHandler is unused but had its address taken
  1033     0000                     
  1034 ;; Function _EUSART_DefaultOverrunErrorHandler is unused but had its address taken
  1035     0000                     
  1036 ;; Function _EUSART_DefaultErrorHandler is unused but had its address taken
  1037     0000                     
  1038                           	psect	stringtext1
  1039     0832                     __pstringtext1:
  1040     0832                     _msg6:
  1041     0832  3454               	retlw	84
  1042     0833  346F               	retlw	111
  1043     0834  3464               	retlw	100
  1044     0835  346F               	retlw	111
  1045     0836  3473               	retlw	115
  1046     0837  3420               	retlw	32
  1047     0838  346F               	retlw	111
  1048     0839  3473               	retlw	115
  1049     083A  3420               	retlw	32
  1050     083B  3461               	retlw	97
  1051     083C  3467               	retlw	103
  1052     083D  3465               	retlw	101
  1053     083E  346E               	retlw	110
  1054     083F  3464               	retlw	100
  1055     0840  3461               	retlw	97
  1056     0841  346D               	retlw	109
  1057     0842  3465               	retlw	101
  1058     0843  346E               	retlw	110
  1059     0844  3474               	retlw	116
  1060     0845  346F               	retlw	111
  1061     0846  3473               	retlw	115
  1062     0847  3420               	retlw	32
  1063     0848  3466               	retlw	102
  1064     0849  346F               	retlw	111
  1065     084A  3472               	retlw	114
  1066     084B  3461               	retlw	97
  1067     084C  346D               	retlw	109
  1068     084D  3420               	retlw	32
  1069     084E  3461               	retlw	97
  1070     084F  3474               	retlw	116
  1071     0850  3465               	retlw	101
  1072     0851  346E               	retlw	110
  1073     0852  3464               	retlw	100
  1074     0853  3469               	retlw	105
  1075     0854  3464               	retlw	100
  1076     0855  346F               	retlw	111
  1077     0856  3473               	retlw	115
  1078     0857  3400               	retlw	0
  1079     0858                     __end_of_msg6:
  1080                           
  1081                           	psect	stringtext2
  1082     08A2                     __pstringtext2:
  1083     08A2                     _debug1:
  1084     08A2  3454               	retlw	84
  1085     08A3  3465               	retlw	101
  1086     08A4  3472               	retlw	114
  1087     08A5  346D               	retlw	109
  1088     08A6  3469               	retlw	105
  1089     08A7  346E               	retlw	110
  1090     08A8  346F               	retlw	111
  1091     08A9  3475               	retlw	117
  1092     08AA  3420               	retlw	32
  1093     08AB  3464               	retlw	100
  1094     08AC  3465               	retlw	101
  1095     08AD  3420               	retlw	32
  1096     08AE  3461               	retlw	97
  1097     08AF  3472               	retlw	114
  1098     08B0  346D               	retlw	109
  1099     08B1  3461               	retlw	97
  1100     08B2  347A               	retlw	122
  1101     08B3  3465               	retlw	101
  1102     08B4  346E               	retlw	110
  1103     08B5  3461               	retlw	97
  1104     08B6  3472               	retlw	114
  1105     08B7  3420               	retlw	32
  1106     08B8  346E               	retlw	110
  1107     08B9  346F               	retlw	111
  1108     08BA  3420               	retlw	32
  1109     08BB  3462               	retlw	98
  1110     08BC  3475               	retlw	117
  1111     08BD  3466               	retlw	102
  1112     08BE  3466               	retlw	102
  1113     08BF  3465               	retlw	101
  1114     08C0  3472               	retlw	114
  1115     08C1  3400               	retlw	0
  1116     08C2                     __end_of_debug1:
  1117                           
  1118                           	psect	stringtext3
  1119     08C2                     __pstringtext3:
  1120     08C2                     _msg8:
  1121     08C2  344F               	retlw	79
  1122     08C3  3420               	retlw	32
  1123     08C4  3461               	retlw	97
  1124     08C5  3467               	retlw	103
  1125     08C6  3465               	retlw	101
  1126     08C7  346E               	retlw	110
  1127     08C8  3464               	retlw	100
  1128     08C9  3461               	retlw	97
  1129     08CA  346D               	retlw	109
  1130     08CB  3465               	retlw	101
  1131     08CC  346E               	retlw	110
  1132     08CD  3474               	retlw	116
  1133     08CE  346F               	retlw	111
  1134     08CF  3420               	retlw	32
  1135     08D0  3466               	retlw	102
  1136     08D1  346F               	retlw	111
  1137     08D2  3469               	retlw	105
  1138     08D3  3420               	retlw	32
  1139     08D4  3472               	retlw	114
  1140     08D5  3465               	retlw	101
  1141     08D6  3461               	retlw	97
  1142     08D7  346C               	retlw	108
  1143     08D8  3469               	retlw	105
  1144     08D9  347A               	retlw	122
  1145     08DA  3461               	retlw	97
  1146     08DB  3464               	retlw	100
  1147     08DC  346F               	retlw	111
  1148     08DD  3400               	retlw	0
  1149     08DE                     __end_of_msg8:
  1150                           
  1151                           	psect	stringtext4
  1152     0911                     __pstringtext4:
  1153     0911                     _debug2:
  1154     0911  3441               	retlw	65
  1155     0912  3472               	retlw	114
  1156     0913  346D               	retlw	109
  1157     0914  3461               	retlw	97
  1158     0915  347A               	retlw	122
  1159     0916  3465               	retlw	101
  1160     0917  346E               	retlw	110
  1161     0918  3461               	retlw	97
  1162     0919  346E               	retlw	110
  1163     091A  3464               	retlw	100
  1164     091B  346F               	retlw	111
  1165     091C  3420               	retlw	32
  1166     091D  346E               	retlw	110
  1167     091E  3461               	retlw	97
  1168     091F  3420               	retlw	32
  1169     0920  3445               	retlw	69
  1170     0921  3445               	retlw	69
  1171     0922  3450               	retlw	80
  1172     0923  3452               	retlw	82
  1173     0924  344F               	retlw	79
  1174     0925  344D               	retlw	77
  1175     0926  3400               	retlw	0
  1176     0927                     __end_of_debug2:
  1177                           
  1178                           	psect	stringtext5
  1179     0927                     __pstringtext5:
  1180     0927                     _debug:
  1181     0927  3441               	retlw	65
  1182     0928  3472               	retlw	114
  1183     0929  346D               	retlw	109
  1184     092A  3461               	retlw	97
  1185     092B  347A               	retlw	122
  1186     092C  3465               	retlw	101
  1187     092D  346E               	retlw	110
  1188     092E  3461               	retlw	97
  1189     092F  346E               	retlw	110
  1190     0930  3464               	retlw	100
  1191     0931  346F               	retlw	111
  1192     0932  3420               	retlw	32
  1193     0933  346E               	retlw	110
  1194     0934  346F               	retlw	111
  1195     0935  3420               	retlw	32
  1196     0936  3462               	retlw	98
  1197     0937  3475               	retlw	117
  1198     0938  3466               	retlw	102
  1199     0939  3466               	retlw	102
  1200     093A  3465               	retlw	101
  1201     093B  3472               	retlw	114
  1202     093C  3400               	retlw	0
  1203     093D                     __end_of_debug:
  1204                           
  1205                           	psect	stringtext6
  1206     0800                     __pstringtext6:
  1207     0800                     _msg0:
  1208     0800  344C               	retlw	76
  1209     0801  342D               	retlw	45
  1210     0802  3445               	retlw	69
  1211     0803  3478               	retlw	120
  1212     0804  3469               	retlw	105
  1213     0805  3462               	retlw	98
  1214     0806  3465               	retlw	101
  1215     0807  3420               	retlw	32
  1216     0808  346C               	retlw	108
  1217     0809  3469               	retlw	105
  1218     080A  3473               	retlw	115
  1219     080B  3474               	retlw	116
  1220     080C  3461               	retlw	97
  1221     080D  342C               	retlw	44
  1222     080E  3420               	retlw	32
  1223     080F  3441               	retlw	65
  1224     0810  342D               	retlw	45
  1225     0811  3441               	retlw	65
  1226     0812  3467               	retlw	103
  1227     0813  3465               	retlw	101
  1228     0814  346E               	retlw	110
  1229     0815  3464               	retlw	100
  1230     0816  3461               	retlw	97
  1231     0817  342C               	retlw	44
  1232     0818  3420               	retlw	32
  1233     0819  3450               	retlw	80
  1234     081A  342D               	retlw	45
  1235     081B  3450               	retlw	80
  1236     081C  3472               	retlw	114
  1237     081D  346F               	retlw	111
  1238     081E  3478               	retlw	120
  1239     081F  3469               	retlw	105
  1240     0820  346D               	retlw	109
  1241     0821  346F               	retlw	111
  1242     0822  342C               	retlw	44
  1243     0823  3420               	retlw	32
  1244     0824  3452               	retlw	82
  1245     0825  342D               	retlw	45
  1246     0826  3441               	retlw	65
  1247     0827  3470               	retlw	112
  1248     0828  3461               	retlw	97
  1249     0829  3467               	retlw	103
  1250     082A  3461               	retlw	97
  1251     082B  3420               	retlw	32
  1252     082C  346C               	retlw	108
  1253     082D  3469               	retlw	105
  1254     082E  3473               	retlw	115
  1255     082F  3474               	retlw	116
  1256     0830  3461               	retlw	97
  1257     0831  3400               	retlw	0
  1258     0832                     __end_of_msg0:
  1259                           
  1260                           	psect	stringtext7
  1261     0858                     __pstringtext7:
  1262     0858                     _msg5:
  1263     0858  344E               	retlw	78
  1264     0859  3461               	retlw	97
  1265     085A  346F               	retlw	111
  1266     085B  3420               	retlw	32
  1267     085C  3466               	retlw	102
  1268     085D  346F               	retlw	111
  1269     085E  3469               	retlw	105
  1270     085F  3420               	retlw	32
  1271     0860  3470               	retlw	112
  1272     0861  346F               	retlw	111
  1273     0862  3473               	retlw	115
  1274     0863  3473               	retlw	115
  1275     0864  3469               	retlw	105
  1276     0865  3476               	retlw	118
  1277     0866  3465               	retlw	101
  1278     0867  346C               	retlw	108
  1279     0868  3420               	retlw	32
  1280     0869  3461               	retlw	97
  1281     086A  3467               	retlw	103
  1282     086B  3465               	retlw	101
  1283     086C  346E               	retlw	110
  1284     086D  3464               	retlw	100
  1285     086E  3461               	retlw	97
  1286     086F  3472               	retlw	114
  1287     0870  3420               	retlw	32
  1288     0871  3428               	retlw	40
  1289     0872  346E               	retlw	110
  1290     0873  346F               	retlw	111
  1291     0874  346D               	retlw	109
  1292     0875  3465               	retlw	101
  1293     0876  3420               	retlw	32
  1294     0877  3476               	retlw	118
  1295     0878  3461               	retlw	97
  1296     0879  347A               	retlw	122
  1297     087A  3469               	retlw	105
  1298     087B  346F               	retlw	111
  1299     087C  3429               	retlw	41
  1300     087D  3400               	retlw	0
  1301     087E                     __end_of_msg5:
  1302                           
  1303                           	psect	stringtext8
  1304     087E                     __pstringtext8:
  1305     087E                     _msg7:
  1306     087E  344E               	retlw	78
  1307     087F  3461               	retlw	97
  1308     0880  346F               	retlw	111
  1309     0881  3420               	retlw	32
  1310     0882  3464               	retlw	100
  1311     0883  3469               	retlw	105
  1312     0884  3473               	retlw	115
  1313     0885  3470               	retlw	112
  1314     0886  346F               	retlw	111
  1315     0887  346E               	retlw	110
  1316     0888  3465               	retlw	101
  1317     0889  346D               	retlw	109
  1318     088A  346F               	retlw	111
  1319     088B  3473               	retlw	115
  1320     088C  3420               	retlw	32
  1321     088D  3464               	retlw	100
  1322     088E  3465               	retlw	101
  1323     088F  3420               	retlw	32
  1324     0890  346D               	retlw	109
  1325     0891  3461               	retlw	97
  1326     0892  3469               	retlw	105
  1327     0893  3473               	retlw	115
  1328     0894  3420               	retlw	32
  1329     0895  3461               	retlw	97
  1330     0896  3467               	retlw	103
  1331     0897  3465               	retlw	101
  1332     0898  346E               	retlw	110
  1333     0899  3464               	retlw	100
  1334     089A  3461               	retlw	97
  1335     089B  346D               	retlw	109
  1336     089C  3465               	retlw	101
  1337     089D  346E               	retlw	110
  1338     089E  3474               	retlw	116
  1339     089F  346F               	retlw	111
  1340     08A0  3473               	retlw	115
  1341     08A1  3400               	retlw	0
  1342     08A2                     __end_of_msg7:
  1343                           
  1344                           	psect	stringtext9
  1345     08DE                     __pstringtext9:
  1346     08DE                     _msg2:
  1347     08DE  344C               	retlw	76
  1348     08DF  3469               	retlw	105
  1349     08E0  3473               	retlw	115
  1350     08E1  3474               	retlw	116
  1351     08E2  3461               	retlw	97
  1352     08E3  3420               	retlw	32
  1353     08E4  3464               	retlw	100
  1354     08E5  3465               	retlw	101
  1355     08E6  3420               	retlw	32
  1356     08E7  3461               	retlw	97
  1357     08E8  3467               	retlw	103
  1358     08E9  3465               	retlw	101
  1359     08EA  346E               	retlw	110
  1360     08EB  3464               	retlw	100
  1361     08EC  3461               	retlw	97
  1362     08ED  346D               	retlw	109
  1363     08EE  3465               	retlw	101
  1364     08EF  346E               	retlw	110
  1365     08F0  3474               	retlw	116
  1366     08F1  346F               	retlw	111
  1367     08F2  3473               	retlw	115
  1368     08F3  3420               	retlw	32
  1369     08F4  3476               	retlw	118
  1370     08F5  3461               	retlw	97
  1371     08F6  347A               	retlw	122
  1372     08F7  3469               	retlw	105
  1373     08F8  3461               	retlw	97
  1374     08F9  3400               	retlw	0
  1375     08FA                     __end_of_msg2:
  1376                           
  1377                           	psect	stringtext10
  1378     08FA                     __pstringtext10:
  1379     08FA                     _msg1:
  1380     08FA  344C               	retlw	76
  1381     08FB  3469               	retlw	105
  1382     08FC  3473               	retlw	115
  1383     08FD  3474               	retlw	116
  1384     08FE  3461               	retlw	97
  1385     08FF  3420               	retlw	32
  1386     0900  3464               	retlw	100
  1387     0901  3465               	retlw	101
  1388     0902  3420               	retlw	32
  1389     0903  3461               	retlw	97
  1390     0904  3467               	retlw	103
  1391     0905  3465               	retlw	101
  1392     0906  346E               	retlw	110
  1393     0907  3464               	retlw	100
  1394     0908  3461               	retlw	97
  1395     0909  346D               	retlw	109
  1396     090A  3465               	retlw	101
  1397     090B  346E               	retlw	110
  1398     090C  3474               	retlw	116
  1399     090D  346F               	retlw	111
  1400     090E  3473               	retlw	115
  1401     090F  343A               	retlw	58
  1402     0910  3400               	retlw	0
  1403     0911                     __end_of_msg1:
  1404                           
  1405                           	psect	stringtext11
  1406     093D                     __pstringtext11:
  1407     093D                     _msg4:
  1408     093D  3444               	retlw	68
  1409     093E  3469               	retlw	105
  1410     093F  3467               	retlw	103
  1411     0940  3469               	retlw	105
  1412     0941  3474               	retlw	116
  1413     0942  3465               	retlw	101
  1414     0943  3420               	retlw	32
  1415     0944  346F               	retlw	111
  1416     0945  3420               	retlw	32
  1417     0946  346E               	retlw	110
  1418     0947  346F               	retlw	111
  1419     0948  346D               	retlw	109
  1420     0949  3465               	retlw	101
  1421     094A  343A               	retlw	58
  1422     094B  3400               	retlw	0
  1423     094C                     __end_of_msg4:
  1424                           
  1425                           	psect	stringtext12
  1426     094C                     __pstringtext12:
  1427     094C                     _msg3:
  1428     094C  3450               	retlw	80
  1429     094D  3472               	retlw	114
  1430     094E  346F               	retlw	111
  1431     094F  3478               	retlw	120
  1432     0950  3469               	retlw	105
  1433     0951  346D               	retlw	109
  1434     0952  346F               	retlw	111
  1435     0953  343A               	retlw	58
  1436     0954  3400               	retlw	0
  1437     0955                     __end_of_msg3:
  1438                           
  1439                           	psect	nvBANK0
  1440     003B                     __pnvBANK0:
  1441     003B                     _EUSART_ErrorHandler:
  1442     003B                     	ds	2
  1443     003D                     _EUSART_OverrunErrorHandler:
  1444     003D                     	ds	2
  1445     003F                     _EUSART_FramingErrorHandler:
  1446     003F                     	ds	2
  1447     0003                     _STATUSbits	set	3
  1448     000B                     _INTCONbits	set	11
  1449     0011                     _PIR1bits	set	17
  1450     0097                     _WDTCON	set	151
  1451     0098                     _OSCTUNE	set	152
  1452     0099                     _OSCCON	set	153
  1453     0095                     _OPTION_REGbits	set	149
  1454     008D                     _TRISB	set	141
  1455     008C                     _TRISA	set	140
  1456     0116                     _BORCON	set	278
  1457     011E                     _APFCON1	set	286
  1458     011D                     _APFCON0	set	285
  1459     010D                     _LATB	set	269
  1460     010C                     _LATA	set	268
  1461     0191                     _EEADR	set	401
  1462     0193                     _EEDATA	set	403
  1463     0195                     _EECON1	set	405
  1464     0196                     _EECON2	set	406
  1465     0193                     _EEDATL	set	403
  1466     0194                     _EEDATH	set	404
  1467     0195                     _EECON1bits	set	405
  1468     0192                     _EEADRH	set	402
  1469     0191                     _EEADRL	set	401
  1470     019A                     _TXREG	set	410
  1471     0199                     _RCREG	set	409
  1472     019D                     _RCSTAbits	set	413
  1473     019E                     _TXSTAbits	set	414
  1474     019C                     _SPBRGH	set	412
  1475     019B                     _SPBRGL	set	411
  1476     019E                     _TXSTA	set	414
  1477     019D                     _RCSTA	set	413
  1478     019F                     _BAUDCON	set	415
  1479     018C                     _ANSELA	set	396
  1480     018D                     _ANSELB	set	397
  1481     020C                     _WPUA	set	524
  1482     020D                     _WPUB	set	525
  1483                           
  1484                           	psect	cinit
  1485     07F5                     start_initialization:	
  1486                           ; #config settings
  1487                           
  1488     07F5                     __initialization:
  1489                           
  1490                           ; Clear objects allocated to BANK0
  1491     07F5  3020               	movlw	low __pbssBANK0
  1492     07F6  0084               	movwf	4
  1493     07F7  3000               	movlw	high __pbssBANK0
  1494     07F8  0085               	movwf	5
  1495     07F9  301B               	movlw	27
  1496     07FA  3185  2523  3187   	fcall	clear_ram0
  1497     07FD                     end_of_initialization:	
  1498                           ;End of C runtime variable initialization code
  1499                           
  1500     07FD                     __end_of__initialization:
  1501     07FD  0020               	movlb	0
  1502     07FE  3186  2E91         	ljmp	_main	;jump to C main() function
  1503                           
  1504                           	psect	bssEEDATA
  1505     0000                     __pbssEEDATA:
  1506     0000                     _name_list:
  1507     0000  0000               	db	0
  1508     0001  0000               	db	0
  1509     0002  0000               	db	0
  1510     0003  0000               	db	0
  1511     0004  0000               	db	0
  1512     0005  0000               	db	0
  1513     0006  0000               	db	0
  1514     0007  0000               	db	0
  1515     0008  0000               	db	0
  1516     0009  0000               	db	0
  1517     000A  0000               	db	0
  1518     000B  0000               	db	0
  1519     000C  0000               	db	0
  1520     000D  0000               	db	0
  1521     000E  0000               	db	0
  1522     000F  0000               	db	0
  1523     0010  0000               	db	0
  1524     0011  0000               	db	0
  1525     0012  0000               	db	0
  1526     0013  0000               	db	0
  1527     0014  0000               	db	0
  1528     0015  0000               	db	0
  1529     0016  0000               	db	0
  1530     0017  0000               	db	0
  1531     0018  0000               	db	0
  1532     0019  0000               	db	0
  1533     001A  0000               	db	0
  1534     001B  0000               	db	0
  1535     001C  0000               	db	0
  1536     001D  0000               	db	0
  1537     001E  0000               	db	0
  1538     001F  0000               	db	0
  1539     0020  0000               	db	0
  1540     0021  0000               	db	0
  1541     0022  0000               	db	0
  1542     0023  0000               	db	0
  1543     0024  0000               	db	0
  1544     0025  0000               	db	0
  1545     0026  0000               	db	0
  1546     0027  0000               	db	0
  1547     0028  0000               	db	0
  1548     0029  0000               	db	0
  1549     002A  0000               	db	0
  1550     002B  0000               	db	0
  1551     002C  0000               	db	0
  1552     002D  0000               	db	0
  1553     002E  0000               	db	0
  1554     002F  0000               	db	0
  1555     0030  0000               	db	0
  1556     0031  0000               	db	0
  1557     0032  0000               	db	0
  1558     0033  0000               	db	0
  1559     0034  0000               	db	0
  1560     0035  0000               	db	0
  1561     0036  0000               	db	0
  1562     0037  0000               	db	0
  1563     0038  0000               	db	0
  1564     0039  0000               	db	0
  1565     003A  0000               	db	0
  1566     003B  0000               	db	0
  1567     003C  0000               	db	0
  1568     003D  0000               	db	0
  1569     003E  0000               	db	0
  1570     003F  0000               	db	0
  1571     0040  0000               	db	0
  1572     0041  0000               	db	0
  1573     0042  0000               	db	0
  1574     0043  0000               	db	0
  1575     0044  0000               	db	0
  1576     0045  0000               	db	0
  1577     0046  0000               	db	0
  1578     0047  0000               	db	0
  1579     0048  0000               	db	0
  1580     0049  0000               	db	0
  1581     004A  0000               	db	0
  1582     004B  0000               	db	0
  1583     004C  0000               	db	0
  1584     004D  0000               	db	0
  1585     004E  0000               	db	0
  1586     004F  0000               	db	0
  1587     0050  0000               	db	0
  1588     0051  0000               	db	0
  1589     0052  0000               	db	0
  1590     0053  0000               	db	0
  1591     0054  0000               	db	0
  1592     0055  0000               	db	0
  1593     0056  0000               	db	0
  1594     0057  0000               	db	0
  1595     0058  0000               	db	0
  1596     0059  0000               	db	0
  1597     005A  0000               	db	0
  1598     005B  0000               	db	0
  1599     005C  0000               	db	0
  1600     005D  0000               	db	0
  1601     005E  0000               	db	0
  1602     005F  0000               	db	0
  1603     0060  0000               	db	0
  1604     0061  0000               	db	0
  1605     0062  0000               	db	0
  1606     0063  0000               	db	0
  1607     0064  0000               	db	0
  1608     0065  0000               	db	0
  1609     0066  0000               	db	0
  1610     0067  0000               	db	0
  1611     0068  0000               	db	0
  1612     0069  0000               	db	0
  1613     006A  0000               	db	0
  1614     006B  0000               	db	0
  1615     006C  0000               	db	0
  1616     006D  0000               	db	0
  1617     006E  0000               	db	0
  1618     006F  0000               	db	0
  1619     0070  0000               	db	0
  1620     0071  0000               	db	0
  1621     0072  0000               	db	0
  1622     0073  0000               	db	0
  1623     0074  0000               	db	0
  1624     0075  0000               	db	0
  1625     0076  0000               	db	0
  1626     0077  0000               	db	0
  1627     0078  0000               	db	0
  1628     0079  0000               	db	0
  1629     007A  0000               	db	0
  1630     007B  0000               	db	0
  1631     007C  0000               	db	0
  1632     007D  0000               	db	0
  1633     007E  0000               	db	0
  1634     007F  0000               	db	0
  1635     0080  0000               	db	0
  1636     0081  0000               	db	0
  1637     0082  0000               	db	0
  1638     0083  0000               	db	0
  1639     0084  0000               	db	0
  1640     0085  0000               	db	0
  1641     0086  0000               	db	0
  1642     0087  0000               	db	0
  1643     0088  0000               	db	0
  1644     0089  0000               	db	0
  1645     008A  0000               	db	0
  1646     008B  0000               	db	0
  1647     008C  0000               	db	0
  1648     008D  0000               	db	0
  1649     008E  0000               	db	0
  1650     008F  0000               	db	0
  1651     0090  0000               	db	0
  1652     0091  0000               	db	0
  1653     0092  0000               	db	0
  1654     0093  0000               	db	0
  1655     0094  0000               	db	0
  1656     0095  0000               	db	0
  1657     0096  0000               	db	0
  1658     0097  0000               	db	0
  1659     0098  0000               	db	0
  1660     0099  0000               	db	0
  1661     009A  0000               	db	0
  1662     009B  0000               	db	0
  1663     009C  0000               	db	0
  1664     009D  0000               	db	0
  1665     009E  0000               	db	0
  1666     009F  0000               	db	0
  1667     00A0  0000               	db	0
  1668     00A1  0000               	db	0
  1669     00A2  0000               	db	0
  1670     00A3  0000               	db	0
  1671     00A4  0000               	db	0
  1672     00A5  0000               	db	0
  1673     00A6  0000               	db	0
  1674     00A7  0000               	db	0
  1675     00A8  0000               	db	0
  1676     00A9  0000               	db	0
  1677     00AA  0000               	db	0
  1678     00AB  0000               	db	0
  1679     00AC  0000               	db	0
  1680     00AD  0000               	db	0
  1681     00AE  0000               	db	0
  1682     00AF  0000               	db	0
  1683     00B0  0000               	db	0
  1684     00B1  0000               	db	0
  1685     00B2  0000               	db	0
  1686     00B3  0000               	db	0
  1687     00B4  0000               	db	0
  1688     00B5  0000               	db	0
  1689     00B6  0000               	db	0
  1690     00B7  0000               	db	0
  1691     00B8  0000               	db	0
  1692     00B9  0000               	db	0
  1693     00BA  0000               	db	0
  1694     00BB  0000               	db	0
  1695     00BC  0000               	db	0
  1696     00BD  0000               	db	0
  1697     00BE  0000               	db	0
  1698     00BF  0000               	db	0
  1699     00C0  0000               	db	0
  1700     00C1  0000               	db	0
  1701     00C2  0000               	db	0
  1702     00C3  0000               	db	0
  1703     00C4  0000               	db	0
  1704     00C5  0000               	db	0
  1705     00C6  0000               	db	0
  1706     00C7  0000               	db	0
  1707     00C8  0000               	db	0
  1708     00C9  0000               	db	0
  1709     00CA  0000               	db	0
  1710     00CB  0000               	db	0
  1711     00CC  0000               	db	0
  1712     00CD  0000               	db	0
  1713     00CE  0000               	db	0
  1714     00CF  0000               	db	0
  1715     00D0  0000               	db	0
  1716     00D1  0000               	db	0
  1717     00D2  0000               	db	0
  1718     00D3  0000               	db	0
  1719     00D4  0000               	db	0
  1720     00D5  0000               	db	0
  1721     00D6  0000               	db	0
  1722     00D7  0000               	db	0
  1723     00D8  0000               	db	0
  1724     00D9  0000               	db	0
  1725     00DA  0000               	db	0
  1726     00DB  0000               	db	0
  1727                           
  1728                           	psect	bssBANK0
  1729     0020                     __pbssBANK0:
  1730     0020                     _buffer_rx:
  1731     0020                     	ds	21
  1732     0035                     _receive:
  1733     0035                     	ds	1
  1734     0036                     _atend_count:
  1735     0036                     	ds	1
  1736     0037                     _ang_count:
  1737     0037                     	ds	1
  1738     0038                     _command:
  1739     0038                     	ds	1
  1740     0039                     _rx_count:
  1741     0039                     	ds	1
  1742     003A                     _eusartRxLastError:
  1743     003A                     	ds	1
  1744                           
  1745                           	psect	clrtext
  1746     0523                     clear_ram0:	
  1747                           ;	Called with FSR0 containing the base address, and
  1748                           ;	WREG with the size to clear
  1749                           
  1750     0523  0064               	clrwdt	;clear the watchdog before getting into this loop
  1751     0524                     clrloop0:
  1752     0524  0180               	clrf	0	;clear RAM location pointed to by FSR
  1753     0525  3101               	addfsr 0,1
  1754     0526  0B89               	decfsz	9,f	;Have we reached the end of clearing yet?
  1755     0527  2D24               	goto	clrloop0	;have we reached the end yet?
  1756     0528  3400               	retlw	0	;all done for this memory range, return
  1757                           
  1758                           	psect	cstackCOMMON
  1759     0070                     __pcstackCOMMON:
  1760     0070                     ?_EUSART_SetFramingErrorHandler:
  1761     0070                     ?_EUSART_SetOverrunErrorHandler:	
  1762                           ; 1 bytes @ 0x0
  1763                           
  1764     0070                     ?_EUSART_SetErrorHandler:	
  1765                           ; 1 bytes @ 0x0
  1766                           
  1767     0070                     ?_OSCILLATOR_Initialize:	
  1768                           ; 1 bytes @ 0x0
  1769                           
  1770     0070                     ??_OSCILLATOR_Initialize:	
  1771                           ; 1 bytes @ 0x0
  1772                           
  1773     0070                     ?_WDT_Initialize:	
  1774                           ; 1 bytes @ 0x0
  1775                           
  1776     0070                     ??_WDT_Initialize:	
  1777                           ; 1 bytes @ 0x0
  1778                           
  1779     0070                     ?_PIN_MANAGER_Initialize:	
  1780                           ; 1 bytes @ 0x0
  1781                           
  1782     0070                     ??_PIN_MANAGER_Initialize:	
  1783                           ; 1 bytes @ 0x0
  1784                           
  1785     0070                     ?_EUSART_Initialize:	
  1786                           ; 1 bytes @ 0x0
  1787                           
  1788     0070                     ?_EUSART_is_rx_ready:	
  1789                           ; 1 bytes @ 0x0
  1790                           
  1791     0070                     ??_EUSART_is_rx_ready:	
  1792                           ; 1 bytes @ 0x0
  1793                           
  1794     0070                     ?_EUSART_Read:	
  1795                           ; 1 bytes @ 0x0
  1796                           
  1797     0070                     ??_EUSART_Read:	
  1798                           ; 1 bytes @ 0x0
  1799                           
  1800     0070                     ?_EUSART_Write:	
  1801                           ; 1 bytes @ 0x0
  1802                           
  1803     0070                     ??_EUSART_Write:	
  1804                           ; 1 bytes @ 0x0
  1805                           
  1806     0070                     ?_SYSTEM_Initialize:	
  1807                           ; 1 bytes @ 0x0
  1808                           
  1809     0070                     ?_send_Name:	
  1810                           ; 1 bytes @ 0x0
  1811                           
  1812     0070                     ?_print_list:	
  1813                           ; 1 bytes @ 0x0
  1814                           
  1815     0070                     ?_Agend:	
  1816                           ; 1 bytes @ 0x0
  1817                           
  1818     0070                     ?_Next:	
  1819                           ; 1 bytes @ 0x0
  1820                           
  1821     0070                     ?_Erase:	
  1822                           ; 1 bytes @ 0x0
  1823                           
  1824     0070                     ?_main:	
  1825                           ; 1 bytes @ 0x0
  1826                           
  1827     0070                     ?___eecpymem:	
  1828                           ; 1 bytes @ 0x0
  1829                           
  1830     0070                     ?___memcpyee:	
  1831                           ; 1 bytes @ 0x0
  1832                           
  1833     0070                     ?___eetoc:	
  1834                           ; 1 bytes @ 0x0
  1835                           
  1836     0070                     ?___bmul:	
  1837                           ; 1 bytes @ 0x0
  1838                           
  1839     0070                     EUSART_Write@txData:	
  1840                           ; 1 bytes @ 0x0
  1841                           
  1842     0070                     ___eecpymem@from:	
  1843                           ; 1 bytes @ 0x0
  1844                           
  1845     0070                     ___memcpyee@from:	
  1846                           ; 1 bytes @ 0x0
  1847                           
  1848     0070                     ___bmul@multiplicand:	
  1849                           ; 1 bytes @ 0x0
  1850                           
  1851     0070                     EUSART_SetFramingErrorHandler@interruptHandler:	
  1852                           ; 1 bytes @ 0x0
  1853                           
  1854     0070                     EUSART_SetOverrunErrorHandler@interruptHandler:	
  1855                           ; 2 bytes @ 0x0
  1856                           
  1857     0070                     EUSART_SetErrorHandler@interruptHandler:	
  1858                           ; 2 bytes @ 0x0
  1859                           
  1860                           
  1861                           ; 2 bytes @ 0x0
  1862     0070                     	ds	1
  1863     0071                     ?_send_Msg:
  1864     0071                     ??___bmul:	
  1865                           ; 1 bytes @ 0x1
  1866                           
  1867     0071                     ___eecpymem@size:	
  1868                           ; 1 bytes @ 0x1
  1869                           
  1870     0071                     ___memcpyee@size:	
  1871                           ; 1 bytes @ 0x1
  1872                           
  1873     0071                     send_Msg@msg:	
  1874                           ; 1 bytes @ 0x1
  1875                           
  1876                           
  1877                           ; 2 bytes @ 0x1
  1878     0071                     	ds	1
  1879     0072                     ??_EUSART_SetFramingErrorHandler:
  1880     0072                     ??_EUSART_SetOverrunErrorHandler:	
  1881                           ; 1 bytes @ 0x2
  1882                           
  1883     0072                     ??_EUSART_SetErrorHandler:	
  1884                           ; 1 bytes @ 0x2
  1885                           
  1886     0072                     ??_EUSART_Initialize:	
  1887                           ; 1 bytes @ 0x2
  1888                           
  1889     0072                     ??_SYSTEM_Initialize:	
  1890                           ; 1 bytes @ 0x2
  1891                           
  1892     0072                     ??___eecpymem:	
  1893                           ; 1 bytes @ 0x2
  1894                           
  1895     0072                     ??___memcpyee:	
  1896                           ; 1 bytes @ 0x2
  1897                           
  1898     0072                     ___bmul@product:	
  1899                           ; 1 bytes @ 0x2
  1900                           
  1901                           
  1902                           ; 1 bytes @ 0x2
  1903     0072                     	ds	1
  1904     0073                     ??_send_Msg:
  1905     0073                     ___bmul@multiplier:	
  1906                           ; 1 bytes @ 0x3
  1907                           
  1908                           
  1909                           ; 1 bytes @ 0x3
  1910     0073                     	ds	1
  1911     0074                     ___eecpymem@cp:
  1912     0074                     ___memcpyee@ptr:	
  1913                           ; 1 bytes @ 0x4
  1914                           
  1915                           
  1916                           ; 1 bytes @ 0x4
  1917     0074                     	ds	1
  1918     0075                     ___eecpymem@to:
  1919     0075                     ___memcpyee@to:	
  1920                           ; 1 bytes @ 0x5
  1921                           
  1922                           
  1923                           ; 1 bytes @ 0x5
  1924     0075                     	ds	1
  1925     0076                     ??___eetoc:
  1926     0076                     ?___ctoee:	
  1927                           ; 1 bytes @ 0x6
  1928                           
  1929     0076                     send_Msg@i:	
  1930                           ; 1 bytes @ 0x6
  1931                           
  1932     0076                     ___eetoc@addr:	
  1933                           ; 1 bytes @ 0x6
  1934                           
  1935     0076                     ___ctoee@data:	
  1936                           ; 1 bytes @ 0x6
  1937                           
  1938                           
  1939                           ; 1 bytes @ 0x6
  1940     0076                     	ds	1
  1941     0077                     ??___ctoee:
  1942     0077                     ___eetoc@data:	
  1943                           ; 1 bytes @ 0x7
  1944                           
  1945     0077                     ___ctoee@addr:	
  1946                           ; 1 bytes @ 0x7
  1947                           
  1948                           
  1949                           ; 1 bytes @ 0x7
  1950     0077                     	ds	1
  1951     0078                     ??_send_Name:
  1952     0078                     ??_Agend:	
  1953                           ; 1 bytes @ 0x8
  1954                           
  1955     0078                     ??_Erase:	
  1956                           ; 1 bytes @ 0x8
  1957                           
  1958                           
  1959                           ; 1 bytes @ 0x8
  1960     0078                     	ds	1
  1961     0079                     send_Name@i:
  1962     0079                     Erase@i:	
  1963                           ; 1 bytes @ 0x9
  1964                           
  1965                           
  1966                           ; 2 bytes @ 0x9
  1967     0079                     	ds	1
  1968     007A                     send_Name@name:
  1969                           
  1970                           ; 1 bytes @ 0xA
  1971     007A                     	ds	1
  1972     007B                     ??_print_list:
  1973                           
  1974                           ; 1 bytes @ 0xB
  1975     007B                     	ds	1
  1976     007C                     print_list@k:
  1977     007C                     Agend@i:	
  1978                           ; 1 bytes @ 0xC
  1979                           
  1980                           
  1981                           ; 1 bytes @ 0xC
  1982     007C                     	ds	1
  1983     007D                     Agend@j:
  1984                           
  1985                           ; 1 bytes @ 0xD
  1986     007D                     	ds	1
  1987     007E                     ??_main:
  1988                           
  1989                           	psect	cstackBANK0
  1990     0041                     __pcstackBANK0:	
  1991                           ; 1 bytes @ 0xE
  1992                           
  1993     0041                     ??_Next:
  1994                           
  1995                           ; 1 bytes @ 0x0
  1996     0041                     	ds	5
  1997                           
  1998                           	psect	maintext
  1999     0691                     __pmaintext:	
  2000 ;;
  2001 ;;Main: autosize = 0, tempsize = 0, incstack = 0, save=0
  2002 ;;
  2003 ;; *************** function _main *****************
  2004 ;; Defined at:
  2005 ;;		line 158 in file "main.c"
  2006 ;; Parameters:    Size  Location     Type
  2007 ;;		None
  2008 ;; Auto vars:     Size  Location     Type
  2009 ;;		None
  2010 ;; Return value:  Size  Location     Type
  2011 ;;                  1    wreg      void 
  2012 ;; Registers used:
  2013 ;;		wreg, fsr0l, fsr0h, fsr1l, fsr1h, status,2, status,0, pclath, cstack
  2014 ;; Tracked objects:
  2015 ;;		On entry : B1F/0
  2016 ;;		On exit  : 0/0
  2017 ;;		Unchanged: 0/0
  2018 ;; Data sizes:     COMMON   BANK0   BANK1   BANK2   BANK3   BANK4
  2019 ;;      Params:         0       0       0       0       0       0
  2020 ;;      Locals:         0       0       0       0       0       0
  2021 ;;      Temps:          0       0       0       0       0       0
  2022 ;;      Totals:         0       0       0       0       0       0
  2023 ;;Total ram usage:        0 bytes
  2024 ;; Hardware stack levels required when called: 4
  2025 ;; This function calls:
  2026 ;;		_Agend
  2027 ;;		_EUSART_Read
  2028 ;;		_EUSART_is_rx_ready
  2029 ;;		_Erase
  2030 ;;		_Next
  2031 ;;		_SYSTEM_Initialize
  2032 ;;		_print_list
  2033 ;;		_send_Msg
  2034 ;; This function is called by:
  2035 ;;		Startup code after reset
  2036 ;; This function uses a non-reentrant model
  2037 ;;
  2038                           
  2039     0691                     _main:	
  2040                           ;psect for function _main
  2041                           
  2042     0691                     l1574:	
  2043                           ;incstack = 0
  2044                           ; Regs used in _main: [wreg-fsr1h+status,2+status,0+pclath+cstack]
  2045                           
  2046                           
  2047                           ;main.c: 162:     SYSTEM_Initialize();
  2048     0691  3185  254F  3186   	fcall	_SYSTEM_Initialize
  2049     0694                     l290:	
  2050                           ;main.c: 179:     while (1)
  2051                           
  2052                           
  2053                           ;main.c: 180:     {;main.c: 181:         if(EUSART_is_rx_ready()){
  2054     0694  3185  250C  3186   	fcall	_EUSART_is_rx_ready
  2055     0697  3A00               	xorlw	0
  2056     0698  1903               	skipnz
  2057     0699  2E9B               	goto	u641
  2058     069A  2E9C               	goto	u640
  2059     069B                     u641:
  2060     069B  2E94               	goto	l290
  2061     069C                     u640:
  2062     069C                     l1576:
  2063                           
  2064                           ;main.c: 182:             command = EUSART_Read();
  2065     069C  3185  255C  3186   	fcall	_EUSART_Read
  2066     069F  0020               	movlb	0	; select bank0
  2067     06A0  00B8               	movwf	_command
  2068     06A1                     l1578:
  2069                           
  2070                           ;main.c: 183:             if(command == 0x4C) print_list();
  2071     06A1  304C               	movlw	76
  2072     06A2  0638               	xorwf	_command,w
  2073     06A3  1D03               	btfss	3,2
  2074     06A4  2EA6               	goto	u651
  2075     06A5  2EA7               	goto	u650
  2076     06A6                     u651:
  2077     06A6  2EAB               	goto	l1582
  2078     06A7                     u650:
  2079     06A7                     l1580:
  2080     06A7  3186  2653  3186   	fcall	_print_list
  2081     06AA  2E94               	goto	l290
  2082     06AB                     l1582:
  2083     06AB  3041               	movlw	65
  2084     06AC  0638               	xorwf	_command,w
  2085     06AD  1D03               	btfss	3,2
  2086     06AE  2EB0               	goto	u661
  2087     06AF  2EB1               	goto	u660
  2088     06B0                     u661:
  2089     06B0  2EB5               	goto	l1586
  2090     06B1                     u660:
  2091     06B1                     l1584:
  2092     06B1  3187  2772  3186   	fcall	_Agend
  2093     06B4  2E94               	goto	l290
  2094     06B5                     l1586:
  2095     06B5  3050               	movlw	80
  2096     06B6  0638               	xorwf	_command,w
  2097     06B7  1D03               	btfss	3,2
  2098     06B8  2EBA               	goto	u671
  2099     06B9  2EBB               	goto	u670
  2100     06BA                     u671:
  2101     06BA  2EBF               	goto	l1590
  2102     06BB                     u670:
  2103     06BB                     l1588:
  2104     06BB  3187  271B  3186   	fcall	_Next
  2105     06BE  2E94               	goto	l290
  2106     06BF                     l1590:
  2107     06BF  3052               	movlw	82
  2108     06C0  0638               	xorwf	_command,w
  2109     06C1  1D03               	btfss	3,2
  2110     06C2  2EC4               	goto	u681
  2111     06C3  2EC5               	goto	u680
  2112     06C4                     u681:
  2113     06C4  2EC9               	goto	l1594
  2114     06C5                     u680:
  2115     06C5                     l1592:
  2116     06C5  3185  25D8  3186   	fcall	_Erase
  2117     06C8  2E94               	goto	l290
  2118     06C9                     l1594:
  2119     06C9  3000               	movlw	low (_msg0| (0+32768))
  2120     06CA  00F1               	movwf	send_Msg@msg
  2121     06CB  3088               	movlw	high (_msg0| (0+32768))
  2122     06CC  00F2               	movwf	send_Msg@msg+1
  2123     06CD  3185  25FB  3186   	fcall	_send_Msg
  2124     06D0  2E94               	goto	l290
  2125     06D1  3180  2802         	ljmp	start
  2126     06D3                     __end_of_main:
  2127                           
  2128                           	psect	text1
  2129     0653                     __ptext1:	
  2130 ;; *************** function _print_list *****************
  2131 ;; Defined at:
  2132 ;;		line 99 in file "main.c"
  2133 ;; Parameters:    Size  Location     Type
  2134 ;;		None
  2135 ;; Auto vars:     Size  Location     Type
  2136 ;;  k               1   12[COMMON] unsigned char 
  2137 ;; Return value:  Size  Location     Type
  2138 ;;                  1    wreg      void 
  2139 ;; Registers used:
  2140 ;;		wreg, fsr0l, fsr0h, fsr1l, fsr1h, status,2, status,0, pclath, cstack
  2141 ;; Tracked objects:
  2142 ;;		On entry : 0/0
  2143 ;;		On exit  : 0/0
  2144 ;;		Unchanged: 0/0
  2145 ;; Data sizes:     COMMON   BANK0   BANK1   BANK2   BANK3   BANK4
  2146 ;;      Params:         0       0       0       0       0       0
  2147 ;;      Locals:         1       0       0       0       0       0
  2148 ;;      Temps:          1       0       0       0       0       0
  2149 ;;      Totals:         2       0       0       0       0       0
  2150 ;;Total ram usage:        2 bytes
  2151 ;; Hardware stack levels used: 1
  2152 ;; Hardware stack levels required when called: 3
  2153 ;; This function calls:
  2154 ;;		_EUSART_Write
  2155 ;;		___bmul
  2156 ;;		___eetoc
  2157 ;;		_send_Msg
  2158 ;;		_send_Name
  2159 ;; This function is called by:
  2160 ;;		_main
  2161 ;; This function uses a non-reentrant model
  2162 ;;
  2163                           
  2164     0653                     _print_list:	
  2165                           ;psect for function _print_list
  2166                           
  2167     0653                     l1494:	
  2168                           ;incstack = 0
  2169                           ; Regs used in _print_list: [wreg-fsr1h+status,2+status,0+pclath+cstack]
  2170                           
  2171                           
  2172                           ;main.c: 100:     if(ang_count == 0){
  2173     0653  0020               	movlb	0	; select bank0
  2174     0654  0837               	movf	_ang_count,w
  2175     0655  1D03               	btfss	3,2
  2176     0656  2E58               	goto	u541
  2177     0657  2E59               	goto	u540
  2178     0658                     u541:
  2179     0658  2E61               	goto	l1498
  2180     0659                     u540:
  2181     0659                     l1496:
  2182                           
  2183                           ;main.c: 101:             send_Msg(msg2);
  2184     0659  30DE               	movlw	low (_msg2| (0+32768))
  2185     065A  00F1               	movwf	send_Msg@msg
  2186     065B  3088               	movlw	high (_msg2| (0+32768))
  2187     065C  00F2               	movwf	send_Msg@msg+1
  2188     065D  3185  25FB  3186   	fcall	_send_Msg
  2189                           
  2190                           ;main.c: 102:         }else{
  2191     0660  2E90               	goto	l257
  2192     0661                     l1498:
  2193                           
  2194                           ;main.c: 103:             send_Msg(msg1);
  2195     0661  30FA               	movlw	low (_msg1| (0+32768))
  2196     0662  00F1               	movwf	send_Msg@msg
  2197     0663  3088               	movlw	high (_msg1| (0+32768))
  2198     0664  00F2               	movwf	send_Msg@msg+1
  2199     0665  3185  25FB  3186   	fcall	_send_Msg
  2200     0668                     l1500:
  2201                           
  2202                           ;main.c: 104:             uint8_t k = 0;
  2203     0668  01FC               	clrf	print_list@k
  2204                           
  2205                           ;main.c: 105:             while(k<ang_count){
  2206     0669  2E89               	goto	l1510
  2207     066A                     l1502:
  2208                           
  2209                           ;main.c: 106:                 EUSART_Write(0x20);
  2210     066A  3020               	movlw	32
  2211     066B  3185  253A  3186   	fcall	_EUSART_Write
  2212     066E                     l1504:
  2213                           
  2214                           ;main.c: 107:                 EUSART_Write(name_list[k].estado);
  2215     066E  3016               	movlw	22
  2216     066F  00F0               	movwf	___bmul@multiplicand
  2217     0670  087C               	movf	print_list@k,w
  2218     0671  3185  256B  3186   	fcall	___bmul
  2219     0674  3E00               	addlw	low _name_list
  2220     0675  3185  2544  3186   	fcall	___eetoc
  2221     0678  3185  253A  3186   	fcall	_EUSART_Write
  2222     067B                     l1506:
  2223                           
  2224                           ;main.c: 108:                 send_Name(name_list[k].nome);
  2225     067B  3016               	movlw	22
  2226     067C  00F0               	movwf	___bmul@multiplicand
  2227     067D  087C               	movf	print_list@k,w
  2228     067E  3185  256B  3186   	fcall	___bmul
  2229     0681  3E01               	addlw	low (_name_list+1)
  2230     0682  3185  2598  3186   	fcall	_send_Name
  2231     0685                     l1508:
  2232                           
  2233                           ;main.c: 109:                 k++;
  2234     0685  3001               	movlw	1
  2235     0686  00FB               	movwf	??_print_list
  2236     0687  087B               	movf	??_print_list,w
  2237     0688  07FC               	addwf	print_list@k,f
  2238     0689                     l1510:
  2239                           
  2240                           ;main.c: 105:             while(k<ang_count){
  2241     0689  0020               	movlb	0	; select bank0
  2242     068A  0837               	movf	_ang_count,w
  2243     068B  027C               	subwf	print_list@k,w
  2244     068C  1C03               	skipc
  2245     068D  2E8F               	goto	u551
  2246     068E  2E90               	goto	u550
  2247     068F                     u551:
  2248     068F  2E6A               	goto	l1502
  2249     0690                     u550:
  2250     0690                     l257:
  2251     0690  0008               	return
  2252     0691                     __end_of_print_list:
  2253                           
  2254                           	psect	text2
  2255     054F                     __ptext2:	
  2256 ;; *************** function _SYSTEM_Initialize *****************
  2257 ;; Defined at:
  2258 ;;		line 50 in file "mcc_generated_files/mcc.c"
  2259 ;; Parameters:    Size  Location     Type
  2260 ;;		None
  2261 ;; Auto vars:     Size  Location     Type
  2262 ;;		None
  2263 ;; Return value:  Size  Location     Type
  2264 ;;                  1    wreg      void 
  2265 ;; Registers used:
  2266 ;;		wreg, status,2, status,0, pclath, cstack
  2267 ;; Tracked objects:
  2268 ;;		On entry : 0/0
  2269 ;;		On exit  : 0/0
  2270 ;;		Unchanged: 0/0
  2271 ;; Data sizes:     COMMON   BANK0   BANK1   BANK2   BANK3   BANK4
  2272 ;;      Params:         0       0       0       0       0       0
  2273 ;;      Locals:         0       0       0       0       0       0
  2274 ;;      Temps:          0       0       0       0       0       0
  2275 ;;      Totals:         0       0       0       0       0       0
  2276 ;;Total ram usage:        0 bytes
  2277 ;; Hardware stack levels used: 1
  2278 ;; Hardware stack levels required when called: 2
  2279 ;; This function calls:
  2280 ;;		_EUSART_Initialize
  2281 ;;		_OSCILLATOR_Initialize
  2282 ;;		_PIN_MANAGER_Initialize
  2283 ;;		_WDT_Initialize
  2284 ;; This function is called by:
  2285 ;;		_main
  2286 ;; This function uses a non-reentrant model
  2287 ;;
  2288                           
  2289     054F                     _SYSTEM_Initialize:	
  2290                           ;psect for function _SYSTEM_Initialize
  2291                           
  2292     054F                     l1492:	
  2293                           ;incstack = 0
  2294                           ; Regs used in _SYSTEM_Initialize: [wreg+status,2+status,0+pclath+cstack]
  2295                           
  2296                           
  2297                           ;mcc_generated_files/mcc.c: 53:     PIN_MANAGER_Initialize();
  2298     054F  3185  2580  3185   	fcall	_PIN_MANAGER_Initialize
  2299                           
  2300                           ;mcc_generated_files/mcc.c: 54:     OSCILLATOR_Initialize();
  2301     0552  3185  2529  3185   	fcall	_OSCILLATOR_Initialize
  2302                           
  2303                           ;mcc_generated_files/mcc.c: 55:     WDT_Initialize();
  2304     0555  3185  2508  3185   	fcall	_WDT_Initialize
  2305                           
  2306                           ;mcc_generated_files/mcc.c: 56:     EUSART_Initialize();
  2307     0558  3185  25B6  3185   	fcall	_EUSART_Initialize
  2308     055B                     l135:
  2309     055B  0008               	return
  2310     055C                     __end_of_SYSTEM_Initialize:
  2311                           
  2312                           	psect	text3
  2313     0508                     __ptext3:	
  2314 ;; *************** function _WDT_Initialize *****************
  2315 ;; Defined at:
  2316 ;;		line 69 in file "mcc_generated_files/mcc.c"
  2317 ;; Parameters:    Size  Location     Type
  2318 ;;		None
  2319 ;; Auto vars:     Size  Location     Type
  2320 ;;		None
  2321 ;; Return value:  Size  Location     Type
  2322 ;;                  1    wreg      void 
  2323 ;; Registers used:
  2324 ;;		wreg
  2325 ;; Tracked objects:
  2326 ;;		On entry : 0/0
  2327 ;;		On exit  : 0/0
  2328 ;;		Unchanged: 0/0
  2329 ;; Data sizes:     COMMON   BANK0   BANK1   BANK2   BANK3   BANK4
  2330 ;;      Params:         0       0       0       0       0       0
  2331 ;;      Locals:         0       0       0       0       0       0
  2332 ;;      Temps:          0       0       0       0       0       0
  2333 ;;      Totals:         0       0       0       0       0       0
  2334 ;;Total ram usage:        0 bytes
  2335 ;; Hardware stack levels used: 1
  2336 ;; This function calls:
  2337 ;;		Nothing
  2338 ;; This function is called by:
  2339 ;;		_SYSTEM_Initialize
  2340 ;; This function uses a non-reentrant model
  2341 ;;
  2342                           
  2343     0508                     _WDT_Initialize:	
  2344                           ;psect for function _WDT_Initialize
  2345                           
  2346     0508                     l1448:	
  2347                           ;incstack = 0
  2348                           ; Regs used in _WDT_Initialize: [wreg]
  2349                           
  2350                           
  2351                           ;mcc_generated_files/mcc.c: 72:     WDTCON = 0x16;
  2352     0508  3016               	movlw	22
  2353     0509  0021               	movlb	1	; select bank1
  2354     050A  0097               	movwf	23	;volatile
  2355     050B                     l141:
  2356     050B  0008               	return
  2357     050C                     __end_of_WDT_Initialize:
  2358                           
  2359                           	psect	text4
  2360     0580                     __ptext4:	
  2361 ;; *************** function _PIN_MANAGER_Initialize *****************
  2362 ;; Defined at:
  2363 ;;		line 55 in file "mcc_generated_files/pin_manager.c"
  2364 ;; Parameters:    Size  Location     Type
  2365 ;;		None
  2366 ;; Auto vars:     Size  Location     Type
  2367 ;;		None
  2368 ;; Return value:  Size  Location     Type
  2369 ;;                  1    wreg      void 
  2370 ;; Registers used:
  2371 ;;		wreg, status,2
  2372 ;; Tracked objects:
  2373 ;;		On entry : 0/0
  2374 ;;		On exit  : 0/0
  2375 ;;		Unchanged: 0/0
  2376 ;; Data sizes:     COMMON   BANK0   BANK1   BANK2   BANK3   BANK4
  2377 ;;      Params:         0       0       0       0       0       0
  2378 ;;      Locals:         0       0       0       0       0       0
  2379 ;;      Temps:          0       0       0       0       0       0
  2380 ;;      Totals:         0       0       0       0       0       0
  2381 ;;Total ram usage:        0 bytes
  2382 ;; Hardware stack levels used: 1
  2383 ;; This function calls:
  2384 ;;		Nothing
  2385 ;; This function is called by:
  2386 ;;		_SYSTEM_Initialize
  2387 ;; This function uses a non-reentrant model
  2388 ;;
  2389                           
  2390     0580                     _PIN_MANAGER_Initialize:	
  2391                           ;psect for function _PIN_MANAGER_Initialize
  2392                           
  2393     0580                     l1402:	
  2394                           ;incstack = 0
  2395                           ; Regs used in _PIN_MANAGER_Initialize: [wreg+status,2]
  2396                           
  2397                           
  2398                           ;mcc_generated_files/pin_manager.c: 60:     LATA = 0x00;
  2399     0580  0022               	movlb	2	; select bank2
  2400     0581  018C               	clrf	12	;volatile
  2401                           
  2402                           ;mcc_generated_files/pin_manager.c: 61:     LATB = 0x00;
  2403     0582  018D               	clrf	13	;volatile
  2404     0583                     l1404:
  2405                           
  2406                           ;mcc_generated_files/pin_manager.c: 66:     TRISA = 0xFF;
  2407     0583  30FF               	movlw	255
  2408     0584  0021               	movlb	1	; select bank1
  2409     0585  008C               	movwf	12	;volatile
  2410     0586                     l1406:
  2411                           
  2412                           ;mcc_generated_files/pin_manager.c: 67:     TRISB = 0xFF;
  2413     0586  30FF               	movlw	255
  2414     0587  008D               	movwf	13	;volatile
  2415     0588                     l1408:
  2416                           
  2417                           ;mcc_generated_files/pin_manager.c: 72:     ANSELB = 0xDA;
  2418     0588  30DA               	movlw	218
  2419     0589  0023               	movlb	3	; select bank3
  2420     058A  008D               	movwf	13	;volatile
  2421     058B                     l1410:
  2422                           
  2423                           ;mcc_generated_files/pin_manager.c: 73:     ANSELA = 0x1F;
  2424     058B  301F               	movlw	31
  2425     058C  008C               	movwf	12	;volatile
  2426                           
  2427                           ;mcc_generated_files/pin_manager.c: 78:     WPUB = 0x00;
  2428     058D  0024               	movlb	4	; select bank4
  2429     058E  018D               	clrf	13	;volatile
  2430                           
  2431                           ;mcc_generated_files/pin_manager.c: 79:     WPUA = 0x00;
  2432     058F  018C               	clrf	12	;volatile
  2433     0590                     l1412:
  2434                           
  2435                           ;mcc_generated_files/pin_manager.c: 80:     OPTION_REGbits.nWPUEN = 1;
  2436     0590  0021               	movlb	1	; select bank1
  2437     0591  1795               	bsf	21,7	;volatile
  2438     0592                     l1414:
  2439                           
  2440                           ;mcc_generated_files/pin_manager.c: 86:     APFCON0 = 0x80;
  2441     0592  3080               	movlw	128
  2442     0593  0022               	movlb	2	; select bank2
  2443     0594  009D               	movwf	29	;volatile
  2444     0595                     l1416:
  2445                           
  2446                           ;mcc_generated_files/pin_manager.c: 87:     APFCON1 = 0x01;
  2447     0595  3001               	movlw	1
  2448     0596  009E               	movwf	30	;volatile
  2449     0597                     l25:
  2450     0597  0008               	return
  2451     0598                     __end_of_PIN_MANAGER_Initialize:
  2452                           
  2453                           	psect	text5
  2454     0529                     __ptext5:	
  2455 ;; *************** function _OSCILLATOR_Initialize *****************
  2456 ;; Defined at:
  2457 ;;		line 59 in file "mcc_generated_files/mcc.c"
  2458 ;; Parameters:    Size  Location     Type
  2459 ;;		None
  2460 ;; Auto vars:     Size  Location     Type
  2461 ;;		None
  2462 ;; Return value:  Size  Location     Type
  2463 ;;                  1    wreg      void 
  2464 ;; Registers used:
  2465 ;;		wreg, status,2
  2466 ;; Tracked objects:
  2467 ;;		On entry : 0/0
  2468 ;;		On exit  : 0/0
  2469 ;;		Unchanged: 0/0
  2470 ;; Data sizes:     COMMON   BANK0   BANK1   BANK2   BANK3   BANK4
  2471 ;;      Params:         0       0       0       0       0       0
  2472 ;;      Locals:         0       0       0       0       0       0
  2473 ;;      Temps:          0       0       0       0       0       0
  2474 ;;      Totals:         0       0       0       0       0       0
  2475 ;;Total ram usage:        0 bytes
  2476 ;; Hardware stack levels used: 1
  2477 ;; This function calls:
  2478 ;;		Nothing
  2479 ;; This function is called by:
  2480 ;;		_SYSTEM_Initialize
  2481 ;; This function uses a non-reentrant model
  2482 ;;
  2483                           
  2484     0529                     _OSCILLATOR_Initialize:	
  2485                           ;psect for function _OSCILLATOR_Initialize
  2486                           
  2487     0529                     l1442:	
  2488                           ;incstack = 0
  2489                           ; Regs used in _OSCILLATOR_Initialize: [wreg+status,2]
  2490                           
  2491                           
  2492                           ;mcc_generated_files/mcc.c: 62:     OSCCON = 0x78;
  2493     0529  3078               	movlw	120
  2494     052A  0021               	movlb	1	; select bank1
  2495     052B  0099               	movwf	25	;volatile
  2496     052C                     l1444:
  2497                           
  2498                           ;mcc_generated_files/mcc.c: 64:     OSCTUNE = 0x00;
  2499     052C  0198               	clrf	24	;volatile
  2500     052D                     l1446:
  2501                           
  2502                           ;mcc_generated_files/mcc.c: 66:     BORCON = 0x00;
  2503     052D  0022               	movlb	2	; select bank2
  2504     052E  0196               	clrf	22	;volatile
  2505     052F                     l138:
  2506     052F  0008               	return
  2507     0530                     __end_of_OSCILLATOR_Initialize:
  2508                           
  2509                           	psect	text6
  2510     05B6                     __ptext6:	
  2511 ;; *************** function _EUSART_Initialize *****************
  2512 ;; Defined at:
  2513 ;;		line 66 in file "mcc_generated_files/eusart.c"
  2514 ;; Parameters:    Size  Location     Type
  2515 ;;		None
  2516 ;; Auto vars:     Size  Location     Type
  2517 ;;		None
  2518 ;; Return value:  Size  Location     Type
  2519 ;;                  1    wreg      void 
  2520 ;; Registers used:
  2521 ;;		wreg, status,2, status,0, pclath, cstack
  2522 ;; Tracked objects:
  2523 ;;		On entry : 0/0
  2524 ;;		On exit  : 0/0
  2525 ;;		Unchanged: 0/0
  2526 ;; Data sizes:     COMMON   BANK0   BANK1   BANK2   BANK3   BANK4
  2527 ;;      Params:         0       0       0       0       0       0
  2528 ;;      Locals:         0       0       0       0       0       0
  2529 ;;      Temps:          0       0       0       0       0       0
  2530 ;;      Totals:         0       0       0       0       0       0
  2531 ;;Total ram usage:        0 bytes
  2532 ;; Hardware stack levels used: 1
  2533 ;; Hardware stack levels required when called: 1
  2534 ;; This function calls:
  2535 ;;		_EUSART_SetErrorHandler
  2536 ;;		_EUSART_SetFramingErrorHandler
  2537 ;;		_EUSART_SetOverrunErrorHandler
  2538 ;; This function is called by:
  2539 ;;		_SYSTEM_Initialize
  2540 ;; This function uses a non-reentrant model
  2541 ;;
  2542                           
  2543     05B6                     _EUSART_Initialize:	
  2544                           ;psect for function _EUSART_Initialize
  2545                           
  2546     05B6                     l1418:	
  2547                           ;incstack = 0
  2548                           ; Regs used in _EUSART_Initialize: [wreg+status,2+status,0+pclath+cstack]
  2549                           
  2550                           
  2551                           ;mcc_generated_files/eusart.c: 71:     BAUDCON = 0x08;
  2552     05B6  3008               	movlw	8
  2553     05B7  0023               	movlb	3	; select bank3
  2554     05B8  009F               	movwf	31	;volatile
  2555                           
  2556                           ;mcc_generated_files/eusart.c: 74:     RCSTA = 0x90;
  2557     05B9  3090               	movlw	144
  2558     05BA  009D               	movwf	29	;volatile
  2559                           
  2560                           ;mcc_generated_files/eusart.c: 77:     TXSTA = 0x24;
  2561     05BB  3024               	movlw	36
  2562     05BC  009E               	movwf	30	;volatile
  2563                           
  2564                           ;mcc_generated_files/eusart.c: 80:     SPBRGL = 0x44;
  2565     05BD  3044               	movlw	68
  2566     05BE  009B               	movwf	27	;volatile
  2567     05BF                     l1420:
  2568                           
  2569                           ;mcc_generated_files/eusart.c: 83:     SPBRGH = 0x00;
  2570     05BF  019C               	clrf	28	;volatile
  2571     05C0                     l1422:
  2572                           
  2573                           ;mcc_generated_files/eusart.c: 86:     EUSART_SetFramingErrorHandler(EUSART_DefaultFrami
      +                          ngErrorHandler);
  2574     05C0  3000               	movlw	0
  2575     05C1  00F0               	movwf	EUSART_SetFramingErrorHandler@interruptHandler
  2576     05C2  3000               	movlw	0
  2577     05C3  00F1               	movwf	EUSART_SetFramingErrorHandler@interruptHandler+1
  2578     05C4  3185  2517  3185   	fcall	_EUSART_SetFramingErrorHandler
  2579     05C7                     l1424:
  2580                           
  2581                           ;mcc_generated_files/eusart.c: 87:     EUSART_SetOverrunErrorHandler(EUSART_DefaultOverr
      +                          unErrorHandler);
  2582     05C7  3000               	movlw	0
  2583     05C8  00F0               	movwf	EUSART_SetOverrunErrorHandler@interruptHandler
  2584     05C9  3000               	movlw	0
  2585     05CA  00F1               	movwf	EUSART_SetOverrunErrorHandler@interruptHandler+1
  2586     05CB  3185  251D  3185   	fcall	_EUSART_SetOverrunErrorHandler
  2587     05CE                     l1426:
  2588                           
  2589                           ;mcc_generated_files/eusart.c: 88:     EUSART_SetErrorHandler(EUSART_DefaultErrorHandler
      +                          );
  2590     05CE  3000               	movlw	0
  2591     05CF  00F0               	movwf	EUSART_SetErrorHandler@interruptHandler
  2592     05D0  3000               	movlw	0
  2593     05D1  00F1               	movwf	EUSART_SetErrorHandler@interruptHandler+1
  2594     05D2  3185  2511  3185   	fcall	_EUSART_SetErrorHandler
  2595     05D5                     l1428:
  2596                           
  2597                           ;mcc_generated_files/eusart.c: 90:     eusartRxLastError.status = 0;
  2598     05D5  0020               	movlb	0	; select bank0
  2599     05D6  01BA               	clrf	_eusartRxLastError	;volatile
  2600     05D7                     l71:
  2601     05D7  0008               	return
  2602     05D8                     __end_of_EUSART_Initialize:
  2603                           
  2604                           	psect	text7
  2605     051D                     __ptext7:	
  2606 ;; *************** function _EUSART_SetOverrunErrorHandler *****************
  2607 ;; Defined at:
  2608 ;;		line 161 in file "mcc_generated_files/eusart.c"
  2609 ;; Parameters:    Size  Location     Type
  2610 ;;  interruptHan    2    0[COMMON] PTR FTN()void 
  2611 ;;		 -> EUSART_DefaultOverrunErrorHandler(1), 
  2612 ;; Auto vars:     Size  Location     Type
  2613 ;;		None
  2614 ;; Return value:  Size  Location     Type
  2615 ;;                  1    wreg      void 
  2616 ;; Registers used:
  2617 ;;		wreg
  2618 ;; Tracked objects:
  2619 ;;		On entry : 0/0
  2620 ;;		On exit  : 0/0
  2621 ;;		Unchanged: 0/0
  2622 ;; Data sizes:     COMMON   BANK0   BANK1   BANK2   BANK3   BANK4
  2623 ;;      Params:         2       0       0       0       0       0
  2624 ;;      Locals:         0       0       0       0       0       0
  2625 ;;      Temps:          0       0       0       0       0       0
  2626 ;;      Totals:         2       0       0       0       0       0
  2627 ;;Total ram usage:        2 bytes
  2628 ;; Hardware stack levels used: 1
  2629 ;; This function calls:
  2630 ;;		Nothing
  2631 ;; This function is called by:
  2632 ;;		_EUSART_Initialize
  2633 ;; This function uses a non-reentrant model
  2634 ;;
  2635                           
  2636     051D                     _EUSART_SetOverrunErrorHandler:	
  2637                           ;psect for function _EUSART_SetOverrunErrorHandler
  2638                           
  2639     051D                     l1358:	
  2640                           ;incstack = 0
  2641                           ; Regs used in _EUSART_SetOverrunErrorHandler: [wreg]
  2642                           
  2643                           
  2644                           ;mcc_generated_files/eusart.c: 162:     EUSART_OverrunErrorHandler = interruptHandler;
  2645     051D  0871               	movf	EUSART_SetOverrunErrorHandler@interruptHandler+1,w
  2646     051E  0020               	movlb	0	; select bank0
  2647     051F  00BE               	movwf	_EUSART_OverrunErrorHandler+1
  2648     0520  0870               	movf	EUSART_SetOverrunErrorHandler@interruptHandler,w
  2649     0521  00BD               	movwf	_EUSART_OverrunErrorHandler
  2650     0522                     l113:
  2651     0522  0008               	return
  2652     0523                     __end_of_EUSART_SetOverrunErrorHandler:
  2653                           
  2654                           	psect	text8
  2655     0517                     __ptext8:	
  2656 ;; *************** function _EUSART_SetFramingErrorHandler *****************
  2657 ;; Defined at:
  2658 ;;		line 157 in file "mcc_generated_files/eusart.c"
  2659 ;; Parameters:    Size  Location     Type
  2660 ;;  interruptHan    2    0[COMMON] PTR FTN()void 
  2661 ;;		 -> EUSART_DefaultFramingErrorHandler(1), 
  2662 ;; Auto vars:     Size  Location     Type
  2663 ;;		None
  2664 ;; Return value:  Size  Location     Type
  2665 ;;                  1    wreg      void 
  2666 ;; Registers used:
  2667 ;;		wreg
  2668 ;; Tracked objects:
  2669 ;;		On entry : 0/0
  2670 ;;		On exit  : 0/0
  2671 ;;		Unchanged: 0/0
  2672 ;; Data sizes:     COMMON   BANK0   BANK1   BANK2   BANK3   BANK4
  2673 ;;      Params:         2       0       0       0       0       0
  2674 ;;      Locals:         0       0       0       0       0       0
  2675 ;;      Temps:          0       0       0       0       0       0
  2676 ;;      Totals:         2       0       0       0       0       0
  2677 ;;Total ram usage:        2 bytes
  2678 ;; Hardware stack levels used: 1
  2679 ;; This function calls:
  2680 ;;		Nothing
  2681 ;; This function is called by:
  2682 ;;		_EUSART_Initialize
  2683 ;; This function uses a non-reentrant model
  2684 ;;
  2685                           
  2686     0517                     _EUSART_SetFramingErrorHandler:	
  2687                           ;psect for function _EUSART_SetFramingErrorHandler
  2688                           
  2689     0517                     l1356:	
  2690                           ;incstack = 0
  2691                           ; Regs used in _EUSART_SetFramingErrorHandler: [wreg]
  2692                           
  2693                           
  2694                           ;mcc_generated_files/eusart.c: 158:     EUSART_FramingErrorHandler = interruptHandler;
  2695     0517  0871               	movf	EUSART_SetFramingErrorHandler@interruptHandler+1,w
  2696     0518  0020               	movlb	0	; select bank0
  2697     0519  00C0               	movwf	_EUSART_FramingErrorHandler+1
  2698     051A  0870               	movf	EUSART_SetFramingErrorHandler@interruptHandler,w
  2699     051B  00BF               	movwf	_EUSART_FramingErrorHandler
  2700     051C                     l110:
  2701     051C  0008               	return
  2702     051D                     __end_of_EUSART_SetFramingErrorHandler:
  2703                           
  2704                           	psect	text9
  2705     0511                     __ptext9:	
  2706 ;; *************** function _EUSART_SetErrorHandler *****************
  2707 ;; Defined at:
  2708 ;;		line 165 in file "mcc_generated_files/eusart.c"
  2709 ;; Parameters:    Size  Location     Type
  2710 ;;  interruptHan    2    0[COMMON] PTR FTN()void 
  2711 ;;		 -> EUSART_DefaultErrorHandler(1), 
  2712 ;; Auto vars:     Size  Location     Type
  2713 ;;		None
  2714 ;; Return value:  Size  Location     Type
  2715 ;;                  1    wreg      void 
  2716 ;; Registers used:
  2717 ;;		wreg
  2718 ;; Tracked objects:
  2719 ;;		On entry : 0/0
  2720 ;;		On exit  : 0/0
  2721 ;;		Unchanged: 0/0
  2722 ;; Data sizes:     COMMON   BANK0   BANK1   BANK2   BANK3   BANK4
  2723 ;;      Params:         2       0       0       0       0       0
  2724 ;;      Locals:         0       0       0       0       0       0
  2725 ;;      Temps:          0       0       0       0       0       0
  2726 ;;      Totals:         2       0       0       0       0       0
  2727 ;;Total ram usage:        2 bytes
  2728 ;; Hardware stack levels used: 1
  2729 ;; This function calls:
  2730 ;;		Nothing
  2731 ;; This function is called by:
  2732 ;;		_EUSART_Initialize
  2733 ;; This function uses a non-reentrant model
  2734 ;;
  2735                           
  2736     0511                     _EUSART_SetErrorHandler:	
  2737                           ;psect for function _EUSART_SetErrorHandler
  2738                           
  2739     0511                     l1360:	
  2740                           ;incstack = 0
  2741                           ; Regs used in _EUSART_SetErrorHandler: [wreg]
  2742                           
  2743                           
  2744                           ;mcc_generated_files/eusart.c: 166:     EUSART_ErrorHandler = interruptHandler;
  2745     0511  0871               	movf	EUSART_SetErrorHandler@interruptHandler+1,w
  2746     0512  0020               	movlb	0	; select bank0
  2747     0513  00BC               	movwf	_EUSART_ErrorHandler+1
  2748     0514  0870               	movf	EUSART_SetErrorHandler@interruptHandler,w
  2749     0515  00BB               	movwf	_EUSART_ErrorHandler
  2750     0516                     l116:
  2751     0516  0008               	return
  2752     0517                     __end_of_EUSART_SetErrorHandler:
  2753                           
  2754                           	psect	text10
  2755     071B                     __ptext10:	
  2756 ;; *************** function _Next *****************
  2757 ;; Defined at:
  2758 ;;		line 137 in file "main.c"
  2759 ;; Parameters:    Size  Location     Type
  2760 ;;		None
  2761 ;; Auto vars:     Size  Location     Type
  2762 ;;		None
  2763 ;; Return value:  Size  Location     Type
  2764 ;;                  1    wreg      void 
  2765 ;; Registers used:
  2766 ;;		wreg, fsr0l, fsr0h, fsr1l, fsr1h, status,2, status,0, pclath, cstack
  2767 ;; Tracked objects:
  2768 ;;		On entry : 0/0
  2769 ;;		On exit  : 0/0
  2770 ;;		Unchanged: 0/0
  2771 ;; Data sizes:     COMMON   BANK0   BANK1   BANK2   BANK3   BANK4
  2772 ;;      Params:         0       0       0       0       0       0
  2773 ;;      Locals:         0       0       0       0       0       0
  2774 ;;      Temps:          0       5       0       0       0       0
  2775 ;;      Totals:         0       5       0       0       0       0
  2776 ;;Total ram usage:        5 bytes
  2777 ;; Hardware stack levels used: 1
  2778 ;; Hardware stack levels required when called: 3
  2779 ;; This function calls:
  2780 ;;		_EUSART_Write
  2781 ;;		___bmul
  2782 ;;		___ctoee
  2783 ;;		___eetoc
  2784 ;;		_send_Msg
  2785 ;;		_send_Name
  2786 ;; This function is called by:
  2787 ;;		_main
  2788 ;; This function uses a non-reentrant model
  2789 ;;
  2790                           
  2791     071B                     _Next:	
  2792                           ;psect for function _Next
  2793                           
  2794     071B                     l1548:	
  2795                           ;incstack = 0
  2796                           ; Regs used in _Next: [wreg-fsr1h+status,2+status,0+pclath+cstack]
  2797                           
  2798                           
  2799                           ;main.c: 138:         if (ang_count- atend_count <= 0){
  2800     071B  0020               	movlb	0	; select bank0
  2801     071C  0837               	movf	_ang_count,w
  2802     071D  00C1               	movwf	??_Next
  2803     071E  01C2               	clrf	??_Next+1
  2804     071F  0842               	movf	??_Next+1,w
  2805     0720  00C4               	movwf	??_Next+3
  2806     0721  0836               	movf	_atend_count,w
  2807     0722  0241               	subwf	??_Next,w
  2808     0723  00C3               	movwf	??_Next+2
  2809     0724  1C03               	skipc
  2810     0725  03C4               	decf	??_Next+3,f
  2811     0726  0844               	movf	??_Next+3,w
  2812     0727  3A80               	xorlw	128
  2813     0728  00C5               	movwf	??_Next+4
  2814     0729  3080               	movlw	128
  2815     072A  0245               	subwf	??_Next+4,w
  2816     072B  1D03               	skipz
  2817     072C  2F2F               	goto	u625
  2818     072D  3001               	movlw	1
  2819     072E  0243               	subwf	??_Next+2,w
  2820     072F                     u625:
  2821     072F  1803               	skipnc
  2822     0730  2F32               	goto	u621
  2823     0731  2F33               	goto	u620
  2824     0732                     u621:
  2825     0732  2F3B               	goto	l1552
  2826     0733                     u620:
  2827     0733                     l1550:
  2828                           
  2829                           ;main.c: 139:             send_Msg(msg2);
  2830     0733  30DE               	movlw	low (_msg2| (0+32768))
  2831     0734  00F1               	movwf	send_Msg@msg
  2832     0735  3088               	movlw	high (_msg2| (0+32768))
  2833     0736  00F2               	movwf	send_Msg@msg+1
  2834     0737  3185  25FB  3187   	fcall	_send_Msg
  2835                           
  2836                           ;main.c: 140:         }
  2837     073A  2F71               	goto	l279
  2838     073B                     l1552:
  2839                           
  2840                           ;main.c: 142:             send_Msg(msg3);
  2841     073B  304C               	movlw	low (_msg3| (0+32768))
  2842     073C  00F1               	movwf	send_Msg@msg
  2843     073D  3089               	movlw	high (_msg3| (0+32768))
  2844     073E  00F2               	movwf	send_Msg@msg+1
  2845     073F  3185  25FB  3187   	fcall	_send_Msg
  2846     0742                     l1554:
  2847                           
  2848                           ;main.c: 143:             name_list[atend_count].estado = 'X';
  2849     0742  3058               	movlw	88
  2850     0743  00F6               	movwf	___ctoee@data
  2851     0744  3016               	movlw	22
  2852     0745  00F0               	movwf	___bmul@multiplicand
  2853     0746  0020               	movlb	0	; select bank0
  2854     0747  0836               	movf	_atend_count,w
  2855     0748  3185  256B  3187   	fcall	___bmul
  2856     074B  3E00               	addlw	low _name_list
  2857     074C  3185  2530  3187   	fcall	___ctoee
  2858     074F                     l1556:
  2859                           
  2860                           ;main.c: 144:             EUSART_Write(0x20);
  2861     074F  3020               	movlw	32
  2862     0750  3185  253A  3187   	fcall	_EUSART_Write
  2863     0753                     l1558:
  2864                           
  2865                           ;main.c: 145:             EUSART_Write(name_list[atend_count].estado);
  2866     0753  3016               	movlw	22
  2867     0754  00F0               	movwf	___bmul@multiplicand
  2868     0755  0020               	movlb	0	; select bank0
  2869     0756  0836               	movf	_atend_count,w
  2870     0757  3185  256B  3187   	fcall	___bmul
  2871     075A  3E00               	addlw	low _name_list
  2872     075B  3185  2544  3187   	fcall	___eetoc
  2873     075E  3185  253A  3187   	fcall	_EUSART_Write
  2874     0761                     l1560:
  2875                           
  2876                           ;main.c: 146:             send_Name(name_list[atend_count].nome);
  2877     0761  3016               	movlw	22
  2878     0762  00F0               	movwf	___bmul@multiplicand
  2879     0763  0020               	movlb	0	; select bank0
  2880     0764  0836               	movf	_atend_count,w
  2881     0765  3185  256B  3187   	fcall	___bmul
  2882     0768  3E01               	addlw	low (_name_list+1)
  2883     0769  3185  2598  3187   	fcall	_send_Name
  2884     076C                     l1562:
  2885                           
  2886                           ;main.c: 147:             atend_count++;
  2887     076C  3001               	movlw	1
  2888     076D  0020               	movlb	0	; select bank0
  2889     076E  00C1               	movwf	??_Next
  2890     076F  0841               	movf	??_Next,w
  2891     0770  07B6               	addwf	_atend_count,f
  2892     0771                     l279:
  2893     0771  0008               	return
  2894     0772                     __end_of_Next:
  2895                           
  2896                           	psect	text11
  2897     0598                     __ptext11:	
  2898 ;; *************** function _send_Name *****************
  2899 ;; Defined at:
  2900 ;;		line 90 in file "main.c"
  2901 ;; Parameters:    Size  Location     Type
  2902 ;;  name            1    wreg     PTR unsigned char 
  2903 ;;		 -> name_list$nome(21), name_list(220), 
  2904 ;; Auto vars:     Size  Location     Type
  2905 ;;  name            1   10[COMMON] PTR unsigned char 
  2906 ;;		 -> name_list$nome(21), name_list(220), 
  2907 ;;  i               1    9[COMMON] unsigned char 
  2908 ;; Return value:  Size  Location     Type
  2909 ;;                  1    wreg      void 
  2910 ;; Registers used:
  2911 ;;		wreg, fsr1l, fsr1h, status,2, status,0, pclath, cstack
  2912 ;; Tracked objects:
  2913 ;;		On entry : 0/0
  2914 ;;		On exit  : 0/0
  2915 ;;		Unchanged: 0/0
  2916 ;; Data sizes:     COMMON   BANK0   BANK1   BANK2   BANK3   BANK4
  2917 ;;      Params:         0       0       0       0       0       0
  2918 ;;      Locals:         2       0       0       0       0       0
  2919 ;;      Temps:          1       0       0       0       0       0
  2920 ;;      Totals:         3       0       0       0       0       0
  2921 ;;Total ram usage:        3 bytes
  2922 ;; Hardware stack levels used: 1
  2923 ;; Hardware stack levels required when called: 2
  2924 ;; This function calls:
  2925 ;;		_EUSART_Write
  2926 ;;		___eetoc
  2927 ;; This function is called by:
  2928 ;;		_print_list
  2929 ;;		_Next
  2930 ;; This function uses a non-reentrant model
  2931 ;;
  2932                           
  2933     0598                     _send_Name:	
  2934                           ;psect for function _send_Name
  2935                           
  2936                           
  2937                           ;incstack = 0
  2938                           ; Regs used in _send_Name: [wreg+fsr1l+fsr1h+status,2+status,0+pclath+cstack]
  2939                           ;send_Name@name stored from wreg
  2940     0598  00FA               	movwf	send_Name@name
  2941     0599                     l1460:
  2942                           
  2943                           ;main.c: 91:     uint8_t i=0;
  2944     0599  01F9               	clrf	send_Name@i
  2945                           
  2946                           ;main.c: 92:     while(name[i]!= 0){
  2947     059A  2DA7               	goto	l1466
  2948     059B                     l1462:
  2949                           
  2950                           ;main.c: 93:         EUSART_Write(name[i]);
  2951     059B  087A               	movf	send_Name@name,w
  2952     059C  0779               	addwf	send_Name@i,w
  2953     059D  3185  2544  3185   	fcall	___eetoc
  2954     05A0  3185  253A  3185   	fcall	_EUSART_Write
  2955     05A3                     l1464:
  2956                           
  2957                           ;main.c: 94:         i++;
  2958     05A3  3001               	movlw	1
  2959     05A4  00F8               	movwf	??_send_Name
  2960     05A5  0878               	movf	??_send_Name,w
  2961     05A6  07F9               	addwf	send_Name@i,f
  2962     05A7                     l1466:
  2963                           
  2964                           ;main.c: 92:     while(name[i]!= 0){
  2965     05A7  087A               	movf	send_Name@name,w
  2966     05A8  0779               	addwf	send_Name@i,w
  2967     05A9  3185  2544  3185   	fcall	___eetoc
  2968     05AC  3A00               	xorlw	0
  2969     05AD  1D03               	skipz
  2970     05AE  2DB0               	goto	u511
  2971     05AF  2DB1               	goto	u510
  2972     05B0                     u511:
  2973     05B0  2D9B               	goto	l1462
  2974     05B1                     u510:
  2975     05B1                     l1468:
  2976                           
  2977                           ;main.c: 96:     EUSART_Write(0x0D);
  2978     05B1  300D               	movlw	13
  2979     05B2  3185  253A  3185   	fcall	_EUSART_Write
  2980     05B5                     l249:
  2981     05B5  0008               	return
  2982     05B6                     __end_of_send_Name:
  2983                           
  2984                           	psect	text12
  2985     0544                     __ptext12:	
  2986 ;; *************** function ___eetoc *****************
  2987 ;; Defined at:
  2988 ;;		line 104 in file "C:\Program Files\Microchip\xc8\v2.46\pic\sources\c99\pic\__eeprom.c"
  2989 ;; Parameters:    Size  Location     Type
  2990 ;;  addr            1    wreg     PTR eeprom void 
  2991 ;;		 -> name_list$nome(21), name_list(220), 
  2992 ;; Auto vars:     Size  Location     Type
  2993 ;;  addr            1    6[COMMON] PTR eeprom void 
  2994 ;;		 -> name_list$nome(21), name_list(220), 
  2995 ;;  data            1    7[COMMON] unsigned char 
  2996 ;; Return value:  Size  Location     Type
  2997 ;;                  1    wreg      unsigned char 
  2998 ;; Registers used:
  2999 ;;		wreg, fsr1l, fsr1h, status,2, status,0, pclath, cstack
  3000 ;; Tracked objects:
  3001 ;;		On entry : 0/0
  3002 ;;		On exit  : 0/0
  3003 ;;		Unchanged: 0/0
  3004 ;; Data sizes:     COMMON   BANK0   BANK1   BANK2   BANK3   BANK4
  3005 ;;      Params:         0       0       0       0       0       0
  3006 ;;      Locals:         2       0       0       0       0       0
  3007 ;;      Temps:          0       0       0       0       0       0
  3008 ;;      Totals:         2       0       0       0       0       0
  3009 ;;Total ram usage:        2 bytes
  3010 ;; Hardware stack levels used: 1
  3011 ;; Hardware stack levels required when called: 1
  3012 ;; This function calls:
  3013 ;;		___eecpymem
  3014 ;; This function is called by:
  3015 ;;		_send_Name
  3016 ;;		_print_list
  3017 ;;		_Next
  3018 ;; This function uses a non-reentrant model
  3019 ;;
  3020                           
  3021     0544                     ___eetoc:	
  3022                           ;psect for function ___eetoc
  3023                           
  3024                           
  3025                           ;incstack = 0
  3026                           ; Regs used in ___eetoc: [wreg+fsr1l+fsr1h+status,2+status,0+pclath+cstack]
  3027                           ;___eetoc@addr stored from wreg
  3028     0544  00F6               	movwf	___eetoc@addr
  3029     0545                     l1396:
  3030                           
  3031                           ;C:\Program Files\Microchip\xc8\v2.46\pic\sources\c99\pic\__eeprom.c: 104: __eetoc(__eep
      +                          rom void *addr);C:\Program Files\Microchip\xc8\v2.46\pic\sources\c99\pic\__eeprom.c: 105
      +                          : {;C:\Program Files\Microchip\xc8\v2.46\pic\sources\c99\pic\__eeprom.c: 106:  unsigned 
      +                          char data;;C:\Program Files\Microchip\xc8\v2.46\pic\sources\c99\pic\__eeprom.c: 107:  __
      +                          eecpymem((unsigned char *) &data,addr,1);
  3032     0545  0876               	movf	___eetoc@addr,w
  3033     0546  00F0               	movwf	___eecpymem@from
  3034     0547  01F1               	clrf	___eecpymem@size
  3035     0548  0AF1               	incf	___eecpymem@size,f
  3036     0549  3077               	movlw	(low (___eetoc@data| 0))& (0+255)
  3037     054A  3186  2625  3185   	fcall	___eecpymem
  3038     054D                     l1398:
  3039                           
  3040                           ;C:\Program Files\Microchip\xc8\v2.46\pic\sources\c99\pic\__eeprom.c: 108:  return data;
  3041     054D  0877               	movf	___eetoc@data,w
  3042     054E                     l345:
  3043     054E  0008               	return
  3044     054F                     __end_of___eetoc:
  3045                           
  3046                           	psect	text13
  3047     0625                     __ptext13:	
  3048 ;; *************** function ___eecpymem *****************
  3049 ;; Defined at:
  3050 ;;		line 6 in file "C:\Program Files\Microchip\xc8\v2.46\pic\sources\c99\pic\__eeprom.c"
  3051 ;; Parameters:    Size  Location     Type
  3052 ;;  to              1    wreg     PTR volatile unsigned ch
  3053 ;;		 -> __eetofl@data(4), __eetoft@data(4), __eetoo@data(8), __eetol@data(4), 
  3054 ;;		 -> __eetom@data(3), __eetoi@data(2), __eetoc@data(1), 
  3055 ;;  from            1    0[COMMON] PTR eeprom unsigned char
  3056 ;;		 -> name_list$nome(21), name_list(220), 
  3057 ;;  size            1    1[COMMON] unsigned char 
  3058 ;; Auto vars:     Size  Location     Type
  3059 ;;  to              1    5[COMMON] PTR volatile unsigned ch
  3060 ;;		 -> __eetofl@data(4), __eetoft@data(4), __eetoo@data(8), __eetol@data(4), 
  3061 ;;		 -> __eetom@data(3), __eetoi@data(2), __eetoc@data(1), 
  3062 ;;  cp              1    4[COMMON] PTR volatile unsigned ch
  3063 ;;		 -> __eetofl@data(4), __eetoft@data(4), __eetoo@data(8), __eetol@data(4), 
  3064 ;;		 -> __eetom@data(3), __eetoi@data(2), __eetoc@data(1), 
  3065 ;; Return value:  Size  Location     Type
  3066 ;;                  1    wreg      void 
  3067 ;; Registers used:
  3068 ;;		wreg, fsr1l, fsr1h, status,2, status,0
  3069 ;; Tracked objects:
  3070 ;;		On entry : 0/0
  3071 ;;		On exit  : 0/0
  3072 ;;		Unchanged: 0/0
  3073 ;; Data sizes:     COMMON   BANK0   BANK1   BANK2   BANK3   BANK4
  3074 ;;      Params:         2       0       0       0       0       0
  3075 ;;      Locals:         2       0       0       0       0       0
  3076 ;;      Temps:          2       0       0       0       0       0
  3077 ;;      Totals:         6       0       0       0       0       0
  3078 ;;Total ram usage:        6 bytes
  3079 ;; Hardware stack levels used: 1
  3080 ;; This function calls:
  3081 ;;		Nothing
  3082 ;; This function is called by:
  3083 ;;		___eetoc
  3084 ;; This function uses a non-reentrant model
  3085 ;;
  3086                           
  3087     0625                     ___eecpymem:	
  3088                           ;psect for function ___eecpymem
  3089                           
  3090                           
  3091                           ;incstack = 0
  3092                           ; Regs used in ___eecpymem: [wreg+fsr1l+fsr1h+status,2+status,0]
  3093                           ;___eecpymem@to stored from wreg
  3094     0625  00F5               	movwf	___eecpymem@to
  3095     0626                     l1340:
  3096                           
  3097                           ;C:\Program Files\Microchip\xc8\v2.46\pic\sources\c99\pic\__eeprom.c: 6: __eecpymem(vola
      +                          tile unsigned char *to, __eeprom unsigned char * from, unsigned char size);C:\Program Fi
      +                          les\Microchip\xc8\v2.46\pic\sources\c99\pic\__eeprom.c: 6: };C:\Program Files\Microchip\
      +                          xc8\v2.46\pic\sources\c99\pic\__eeprom.c: 6: ;C:\Program Files\Microchip\xc8\v2.46\pic\s
      +                          ources\c99\pic\__eeprom.c: 6: ;C:\Program Files\Microchip\xc8\v2.46\pic\sources\c99\pic\
      +                          __eeprom.c: 6: };C:\Program Files\Microchip\xc8\v2.46\pic\sources\c99\pic\__eeprom.c: 7:
      +                           {
  3098     0626  0875               	movf	___eecpymem@to,w
  3099     0627  00F4               	movwf	___eecpymem@cp
  3100     0628                     l319:	
  3101                           ;C:\Program Files\Microchip\xc8\v2.46\pic\sources\c99\pic\__eeprom.c: 10:  while (EECON1
      +                          bits.WR) continue;;C:\Program Files\Microchip\xc8\v2.46\pic\sources\c99\pic\__eeprom.c: 
      +                          10:  __memcpyee(addr,(unsigned char *) &data,2);;C:\Program Files\Microchip\xc8\v2.46\pi
      +                          c\sources\c99\pic\__eeprom.c: 10: {
  3102                           
  3103     0628  0023               	movlb	3	; select bank3
  3104     0629  1895               	btfsc	21,1	;volsfr
  3105     062A  2E2C               	goto	u391
  3106     062B  2E2D               	goto	u390
  3107     062C                     u391:
  3108     062C  2E28               	goto	l319
  3109     062D                     u390:
  3110     062D                     l1342:
  3111                           
  3112                           ;C:\Program Files\Microchip\xc8\v2.46\pic\sources\c99\pic\__eeprom.c: 11:  EEADR = (unsi
      +                          gned char)from;;C:\Program Files\Microchip\xc8\v2.46\pic\sources\c99\pic\__eeprom.c: 11:
      +                            return data;;C:\Program Files\Microchip\xc8\v2.46\pic\sources\c99\pic\__eeprom.c: 11: 
      +                           double data;
  3113     062D  0870               	movf	___eecpymem@from,w
  3114     062E  00F2               	movwf	??___eecpymem
  3115     062F  01F3               	clrf	??___eecpymem+1
  3116     0630  0872               	movf	??___eecpymem,w
  3117     0631  0091               	movwf	17	;volatile
  3118     0632  0873               	movf	??___eecpymem+1,w
  3119     0633  0092               	movwf	18	;volatile
  3120                           
  3121                           ;C:\Program Files\Microchip\xc8\v2.46\pic\sources\c99\pic\__eeprom.c: 12:  while(size--)
      +                           {;C:\Program Files\Microchip\xc8\v2.46\pic\sources\c99\pic\__eeprom.c: 12: };C:\Program
      +                           Files\Microchip\xc8\v2.46\pic\sources\c99\pic\__eeprom.c: 12:  __eecpymem((unsigned cha
      +                          r *) &data,addr,4);
  3122     0634  2E4B               	goto	l1354
  3123     0635                     l324:
  3124     0635  1895               	btfsc	21,1	;volsfr
  3125     0636  2E38               	goto	u401
  3126     0637  2E39               	goto	u400
  3127     0638                     u401:
  3128     0638  2E35               	goto	l324
  3129     0639                     u400:
  3130     0639                     l1344:
  3131                           
  3132                           ;C:\Program Files\Microchip\xc8\v2.46\pic\sources\c99\pic\__eeprom.c: 15:   EECON1 &= 0x
      +                          7F;;C:\Program Files\Microchip\xc8\v2.46\pic\sources\c99\pic\__eeprom.c: 15: 
  3133     0639  307F               	movlw	127
  3134     063A  00F2               	movwf	??___eecpymem
  3135     063B  0872               	movf	??___eecpymem,w
  3136     063C  0595               	andwf	21,f	;volsfr
  3137     063D                     l1346:
  3138                           
  3139                           ;C:\Program Files\Microchip\xc8\v2.46\pic\sources\c99\pic\__eeprom.c: 17:   EECON1bits.R
      +                          D = 1;;C:\Program Files\Microchip\xc8\v2.46\pic\sources\c99\pic\__eeprom.c: 17: __fttoee
      +                          (__eeprom void *addr, float data)
  3140     063D  1415               	bsf	21,0	;volsfr
  3141     063E                     l1348:
  3142                           
  3143                           ;C:\Program Files\Microchip\xc8\v2.46\pic\sources\c99\pic\__eeprom.c: 18:   *cp++ = EEDA
      +                          TA;;C:\Program Files\Microchip\xc8\v2.46\pic\sources\c99\pic\__eeprom.c: 18: {
  3144     063E  0874               	movf	___eecpymem@cp,w
  3145     063F  0086               	movwf	6
  3146     0640  0187               	clrf	7
  3147     0641  0813               	movf	19,w	;volatile
  3148     0642  0081               	movwf	1
  3149     0643                     l1350:
  3150     0643  3001               	movlw	1
  3151     0644  00F2               	movwf	??___eecpymem
  3152     0645  0872               	movf	??___eecpymem,w
  3153     0646  07F4               	addwf	___eecpymem@cp,f
  3154     0647                     l1352:
  3155                           
  3156                           ;C:\Program Files\Microchip\xc8\v2.46\pic\sources\c99\pic\__eeprom.c: 19:   ++EEADR;;C:\
      +                          Program Files\Microchip\xc8\v2.46\pic\sources\c99\pic\__eeprom.c: 19:  __memcpyee(addr,(
      +                          unsigned char *) &data,3);
  3157     0647  3001               	movlw	1
  3158     0648  0791               	addwf	17,f	;volatile
  3159     0649  3000               	movlw	0
  3160     064A  3D92               	addwfc	18,f	;volatile
  3161     064B                     l1354:
  3162                           
  3163                           ;C:\Program Files\Microchip\xc8\v2.46\pic\sources\c99\pic\__eeprom.c: 12:  while(size--)
      +                           {;C:\Program Files\Microchip\xc8\v2.46\pic\sources\c99\pic\__eeprom.c: 12: };C:\Program
      +                           Files\Microchip\xc8\v2.46\pic\sources\c99\pic\__eeprom.c: 12:  __eecpymem((unsigned cha
      +                          r *) &data,addr,4);
  3164     064B  3001               	movlw	1
  3165     064C  02F1               	subwf	___eecpymem@size,f
  3166     064D  0A71               	incf	___eecpymem@size,w
  3167     064E  1D03               	btfss	3,2
  3168     064F  2E51               	goto	u411
  3169     0650  2E52               	goto	u410
  3170     0651                     u411:
  3171     0651  2E35               	goto	l324
  3172     0652                     u410:
  3173     0652                     l328:
  3174     0652  0008               	return
  3175     0653                     __end_of___eecpymem:
  3176                           
  3177                           	psect	text14
  3178     05D8                     __ptext14:	
  3179 ;; *************** function _Erase *****************
  3180 ;; Defined at:
  3181 ;;		line 151 in file "main.c"
  3182 ;; Parameters:    Size  Location     Type
  3183 ;;		None
  3184 ;; Auto vars:     Size  Location     Type
  3185 ;;  i               2    9[COMMON] int 
  3186 ;; Return value:  Size  Location     Type
  3187 ;;                  1    wreg      void 
  3188 ;; Registers used:
  3189 ;;		wreg, fsr1l, fsr1h, status,2, status,0, pclath, cstack
  3190 ;; Tracked objects:
  3191 ;;		On entry : 0/0
  3192 ;;		On exit  : 0/0
  3193 ;;		Unchanged: 0/0
  3194 ;; Data sizes:     COMMON   BANK0   BANK1   BANK2   BANK3   BANK4
  3195 ;;      Params:         0       0       0       0       0       0
  3196 ;;      Locals:         2       0       0       0       0       0
  3197 ;;      Temps:          1       0       0       0       0       0
  3198 ;;      Totals:         3       0       0       0       0       0
  3199 ;;Total ram usage:        3 bytes
  3200 ;; Hardware stack levels used: 1
  3201 ;; Hardware stack levels required when called: 2
  3202 ;; This function calls:
  3203 ;;		___bmul
  3204 ;;		___ctoee
  3205 ;; This function is called by:
  3206 ;;		_main
  3207 ;; This function uses a non-reentrant model
  3208 ;;
  3209                           
  3210     05D8                     _Erase:	
  3211                           ;psect for function _Erase
  3212                           
  3213     05D8                     l1564:	
  3214                           ;incstack = 0
  3215                           ; Regs used in _Erase: [wreg+fsr1l+fsr1h+status,2+status,0+pclath+cstack]
  3216                           
  3217                           
  3218                           ;main.c: 152:         for(int i = 0; i<atend_count ; i++){
  3219     05D8  01F9               	clrf	Erase@i
  3220     05D9  01FA               	clrf	Erase@i+1
  3221     05DA  2DEA               	goto	l1570
  3222     05DB                     l1566:
  3223                           
  3224                           ;main.c: 153:             name_list[i].estado = 0;
  3225     05DB  01F6               	clrf	___ctoee@data
  3226     05DC  3016               	movlw	22
  3227     05DD  00F0               	movwf	___bmul@multiplicand
  3228     05DE  0879               	movf	Erase@i,w
  3229     05DF  3185  256B  3185   	fcall	___bmul
  3230     05E2  3E00               	addlw	low _name_list
  3231     05E3  3185  2530  3185   	fcall	___ctoee
  3232     05E6                     l1568:
  3233                           
  3234                           ;main.c: 154:         }
  3235     05E6  3001               	movlw	1
  3236     05E7  07F9               	addwf	Erase@i,f
  3237     05E8  3000               	movlw	0
  3238     05E9  3DFA               	addwfc	Erase@i+1,f
  3239     05EA                     l1570:
  3240     05EA  087A               	movf	Erase@i+1,w
  3241     05EB  3A80               	xorlw	128
  3242     05EC  00F8               	movwf	??_Erase
  3243     05ED  3080               	movlw	128
  3244     05EE  0278               	subwf	??_Erase,w
  3245     05EF  1D03               	skipz
  3246     05F0  2DF4               	goto	u635
  3247     05F1  0020               	movlb	0	; select bank0
  3248     05F2  0836               	movf	_atend_count,w
  3249     05F3  0279               	subwf	Erase@i,w
  3250     05F4                     u635:
  3251     05F4  1C03               	skipc
  3252     05F5  2DF7               	goto	u631
  3253     05F6  2DF8               	goto	u630
  3254     05F7                     u631:
  3255     05F7  2DDB               	goto	l1566
  3256     05F8                     u630:
  3257     05F8                     l1572:
  3258                           
  3259                           ;main.c: 155:         atend_count = 0;
  3260     05F8  0020               	movlb	0	; select bank0
  3261     05F9  01B6               	clrf	_atend_count
  3262     05FA                     l285:
  3263     05FA  0008               	return
  3264     05FB                     __end_of_Erase:
  3265                           
  3266                           	psect	text15
  3267     050C                     __ptext15:	
  3268 ;; *************** function _EUSART_is_rx_ready *****************
  3269 ;; Defined at:
  3270 ;;		line 99 in file "mcc_generated_files/eusart.c"
  3271 ;; Parameters:    Size  Location     Type
  3272 ;;		None
  3273 ;; Auto vars:     Size  Location     Type
  3274 ;;		None
  3275 ;; Return value:  Size  Location     Type
  3276 ;;                  1    wreg      _Bool 
  3277 ;; Registers used:
  3278 ;;		wreg, status,2, status,0
  3279 ;; Tracked objects:
  3280 ;;		On entry : 0/0
  3281 ;;		On exit  : 0/0
  3282 ;;		Unchanged: 0/0
  3283 ;; Data sizes:     COMMON   BANK0   BANK1   BANK2   BANK3   BANK4
  3284 ;;      Params:         0       0       0       0       0       0
  3285 ;;      Locals:         0       0       0       0       0       0
  3286 ;;      Temps:          0       0       0       0       0       0
  3287 ;;      Totals:         0       0       0       0       0       0
  3288 ;;Total ram usage:        0 bytes
  3289 ;; Hardware stack levels used: 1
  3290 ;; This function calls:
  3291 ;;		Nothing
  3292 ;; This function is called by:
  3293 ;;		_main
  3294 ;; This function uses a non-reentrant model
  3295 ;;
  3296                           
  3297     050C                     _EUSART_is_rx_ready:	
  3298                           ;psect for function _EUSART_is_rx_ready
  3299                           
  3300     050C                     l1488:	
  3301                           ;incstack = 0
  3302                           ; Regs used in _EUSART_is_rx_ready: [wreg+status,2+status,0]
  3303                           
  3304                           
  3305                           ;mcc_generated_files/eusart.c: 101:     return (_Bool)(PIR1bits.RCIF);
  3306     050C  0020               	movlb	0	; select bank0
  3307     050D  0E11               	swapf	17,w	;volatile
  3308     050E  0C89               	rrf	9,f
  3309     050F  3901               	andlw	1
  3310     0510                     l79:
  3311     0510  0008               	return
  3312     0511                     __end_of_EUSART_is_rx_ready:
  3313                           
  3314                           	psect	text16
  3315     0772                     __ptext16:	
  3316 ;; *************** function _Agend *****************
  3317 ;; Defined at:
  3318 ;;		line 114 in file "main.c"
  3319 ;; Parameters:    Size  Location     Type
  3320 ;;		None
  3321 ;; Auto vars:     Size  Location     Type
  3322 ;;  i               1   12[COMMON] unsigned char 
  3323 ;;  j               1   13[COMMON] unsigned char 
  3324 ;; Return value:  Size  Location     Type
  3325 ;;                  1    wreg      void 
  3326 ;; Registers used:
  3327 ;;		wreg, fsr0l, fsr0h, fsr1l, fsr1h, status,2, status,0, pclath, cstack
  3328 ;; Tracked objects:
  3329 ;;		On entry : 0/0
  3330 ;;		On exit  : 0/0
  3331 ;;		Unchanged: 0/0
  3332 ;; Data sizes:     COMMON   BANK0   BANK1   BANK2   BANK3   BANK4
  3333 ;;      Params:         0       0       0       0       0       0
  3334 ;;      Locals:         2       0       0       0       0       0
  3335 ;;      Temps:          4       0       0       0       0       0
  3336 ;;      Totals:         6       0       0       0       0       0
  3337 ;;Total ram usage:        6 bytes
  3338 ;; Hardware stack levels used: 1
  3339 ;; Hardware stack levels required when called: 2
  3340 ;; This function calls:
  3341 ;;		_EUSART_Read
  3342 ;;		___bmul
  3343 ;;		___ctoee
  3344 ;;		_send_Msg
  3345 ;; This function is called by:
  3346 ;;		_main
  3347 ;; This function uses a non-reentrant model
  3348 ;;
  3349                           
  3350     0772                     _Agend:	
  3351                           ;psect for function _Agend
  3352                           
  3353     0772                     l1512:	
  3354                           ;incstack = 0
  3355                           ; Regs used in _Agend: [wreg-fsr1h+status,2+status,0+pclath+cstack]
  3356                           
  3357                           
  3358                           ;main.c: 115:      if(ang_count - atend_count == 10){
  3359     0772  0020               	movlb	0	; select bank0
  3360     0773  0837               	movf	_ang_count,w
  3361     0774  00F8               	movwf	??_Agend
  3362     0775  01F9               	clrf	??_Agend+1
  3363     0776  0879               	movf	??_Agend+1,w
  3364     0777  00FB               	movwf	??_Agend+3
  3365     0778  0836               	movf	_atend_count,w
  3366     0779  0278               	subwf	??_Agend,w
  3367     077A  00FA               	movwf	??_Agend+2
  3368     077B  1C03               	skipc
  3369     077C  03FB               	decf	??_Agend+3,f
  3370     077D  300A               	movlw	10
  3371     077E  067A               	xorwf	??_Agend+2,w
  3372     077F  047B               	iorwf	??_Agend+3,w
  3373     0780  1D03               	btfss	3,2
  3374     0781  2F83               	goto	u561
  3375     0782  2F84               	goto	u560
  3376     0783                     u561:
  3377     0783  2F8C               	goto	l1516
  3378     0784                     u560:
  3379     0784                     l1514:
  3380                           
  3381                           ;main.c: 116:             send_Msg(msg7);
  3382     0784  307E               	movlw	low (_msg7| (0+32768))
  3383     0785  00F1               	movwf	send_Msg@msg
  3384     0786  3088               	movlw	high (_msg7| (0+32768))
  3385     0787  00F2               	movwf	send_Msg@msg+1
  3386     0788  3185  25FB  3187   	fcall	_send_Msg
  3387                           
  3388                           ;main.c: 117:         }else{
  3389     078B  2FF4               	goto	l274
  3390     078C                     l1516:
  3391                           
  3392                           ;main.c: 118:             send_Msg(msg4);
  3393     078C  303D               	movlw	low (_msg4| (0+32768))
  3394     078D  00F1               	movwf	send_Msg@msg
  3395     078E  3089               	movlw	high (_msg4| (0+32768))
  3396     078F  00F2               	movwf	send_Msg@msg+1
  3397     0790  3185  25FB  3187   	fcall	_send_Msg
  3398     0793                     l1518:
  3399                           
  3400                           ;main.c: 119:             receive = EUSART_Read();
  3401     0793  3185  255C  3187   	fcall	_EUSART_Read
  3402     0796  0020               	movlb	0	; select bank0
  3403     0797  00B5               	movwf	_receive
  3404     0798                     l1520:
  3405                           
  3406                           ;main.c: 120:             if(receive == 0x20 || receive == 0x0D)send_Msg(msg5);
  3407     0798  3020               	movlw	32
  3408     0799  0635               	xorwf	_receive,w
  3409     079A  1903               	btfsc	3,2
  3410     079B  2F9D               	goto	u571
  3411     079C  2F9E               	goto	u570
  3412     079D                     u571:
  3413     079D  2FA4               	goto	l1524
  3414     079E                     u570:
  3415     079E                     l1522:
  3416     079E  300D               	movlw	13
  3417     079F  0635               	xorwf	_receive,w
  3418     07A0  1D03               	btfss	3,2
  3419     07A1  2FA3               	goto	u581
  3420     07A2  2FA4               	goto	u580
  3421     07A3                     u581:
  3422     07A3  2FAC               	goto	l1526
  3423     07A4                     u580:
  3424     07A4                     l1524:
  3425     07A4  3058               	movlw	low (_msg5| (0+32768))
  3426     07A5  00F1               	movwf	send_Msg@msg
  3427     07A6  3088               	movlw	high (_msg5| (0+32768))
  3428     07A7  00F2               	movwf	send_Msg@msg+1
  3429     07A8  3185  25FB  3187   	fcall	_send_Msg
  3430     07AB  2FF4               	goto	l274
  3431     07AC                     l1526:
  3432                           
  3433                           ;main.c: 122:                 for(uint8_t i = 0; i<=20 && receive != 0x0D; i++){
  3434     07AC  01FC               	clrf	Agend@i
  3435     07AD  2FC2               	goto	l1534
  3436     07AE                     l1528:
  3437                           
  3438                           ;main.c: 123:                     buffer_rx[i] = receive;
  3439     07AE  087C               	movf	Agend@i,w
  3440     07AF  3E20               	addlw	(low (_buffer_rx| 0))& (0+255)
  3441     07B0  0086               	movwf	6
  3442     07B1  0187               	clrf	7
  3443     07B2  0835               	movf	_receive,w
  3444     07B3  0081               	movwf	1
  3445                           
  3446                           ;main.c: 124:                     buffer_rx[i+1] = 0;
  3447     07B4  087C               	movf	Agend@i,w
  3448     07B5  3E21               	addlw	(low ((_buffer_rx| 0+1)))& (0+255)
  3449     07B6  0086               	movwf	6
  3450     07B7  0187               	clrf	7
  3451     07B8  0181               	clrf	1
  3452     07B9                     l1530:
  3453                           
  3454                           ;main.c: 125:                     receive = EUSART_Read();
  3455     07B9  3185  255C  3187   	fcall	_EUSART_Read
  3456     07BC  0020               	movlb	0	; select bank0
  3457     07BD  00B5               	movwf	_receive
  3458     07BE                     l1532:
  3459                           
  3460                           ;main.c: 126:                 }
  3461     07BE  3001               	movlw	1
  3462     07BF  00F8               	movwf	??_Agend
  3463     07C0  0878               	movf	??_Agend,w
  3464     07C1  07FC               	addwf	Agend@i,f
  3465     07C2                     l1534:
  3466     07C2  3015               	movlw	21
  3467     07C3  027C               	subwf	Agend@i,w
  3468     07C4  1803               	skipnc
  3469     07C5  2FC7               	goto	u591
  3470     07C6  2FC8               	goto	u590
  3471     07C7                     u591:
  3472     07C7  2FCE               	goto	l1538
  3473     07C8                     u590:
  3474     07C8                     l1536:
  3475     07C8  300D               	movlw	13
  3476     07C9  0635               	xorwf	_receive,w
  3477     07CA  1D03               	btfss	3,2
  3478     07CB  2FCD               	goto	u601
  3479     07CC  2FCE               	goto	u600
  3480     07CD                     u601:
  3481     07CD  2FAE               	goto	l1528
  3482     07CE                     u600:
  3483     07CE                     l1538:
  3484                           
  3485                           ;main.c: 127:                 uint8_t j =0;
  3486     07CE  01FD               	clrf	Agend@j
  3487                           
  3488                           ;main.c: 128:                 while(buffer_rx[j] != 0){
  3489     07CF  2FE6               	goto	l1544
  3490     07D0                     l1540:
  3491                           
  3492                           ;main.c: 129:                     name_list[ang_count].nome[j] = buffer_rx[j];
  3493     07D0  087D               	movf	Agend@j,w
  3494     07D1  3E20               	addlw	(low (_buffer_rx| 0))& (0+255)
  3495     07D2  0086               	movwf	6
  3496     07D3  0187               	clrf	7
  3497     07D4  0801               	movf	1,w
  3498     07D5  00F6               	movwf	___ctoee@data
  3499     07D6  3016               	movlw	22
  3500     07D7  00F0               	movwf	___bmul@multiplicand
  3501     07D8  0020               	movlb	0	; select bank0
  3502     07D9  0837               	movf	_ang_count,w
  3503     07DA  3185  256B  3187   	fcall	___bmul
  3504     07DD  3E01               	addlw	low (_name_list+1)
  3505     07DE  077D               	addwf	Agend@j,w
  3506     07DF  3185  2530  3187   	fcall	___ctoee
  3507     07E2                     l1542:
  3508                           
  3509                           ;main.c: 130:                     j++;
  3510     07E2  3001               	movlw	1
  3511     07E3  00F8               	movwf	??_Agend
  3512     07E4  0878               	movf	??_Agend,w
  3513     07E5  07FD               	addwf	Agend@j,f
  3514     07E6                     l1544:
  3515                           
  3516                           ;main.c: 128:                 while(buffer_rx[j] != 0){
  3517     07E6  087D               	movf	Agend@j,w
  3518     07E7  3E20               	addlw	(low (_buffer_rx| 0))& (0+255)
  3519     07E8  0086               	movwf	6
  3520     07E9  0187               	clrf	7
  3521     07EA  0801               	movf	1,w
  3522     07EB  1D03               	btfss	3,2
  3523     07EC  2FEE               	goto	u611
  3524     07ED  2FEF               	goto	u610
  3525     07EE                     u611:
  3526     07EE  2FD0               	goto	l1540
  3527     07EF                     u610:
  3528     07EF                     l1546:
  3529                           
  3530                           ;main.c: 132:                 ang_count++;
  3531     07EF  3001               	movlw	1
  3532     07F0  00F8               	movwf	??_Agend
  3533     07F1  0878               	movf	??_Agend,w
  3534     07F2  0020               	movlb	0	; select bank0
  3535     07F3  07B7               	addwf	_ang_count,f
  3536     07F4                     l274:
  3537     07F4  0008               	return
  3538     07F5                     __end_of_Agend:
  3539                           
  3540                           	psect	text17
  3541     05FB                     __ptext17:	
  3542 ;; *************** function _send_Msg *****************
  3543 ;; Defined at:
  3544 ;;		line 82 in file "main.c"
  3545 ;; Parameters:    Size  Location     Type
  3546 ;;  msg             2    1[COMMON] PTR const unsigned char 
  3547 ;;		 -> msg0(50), msg3(9), msg5(38), msg4(15), 
  3548 ;;		 -> msg7(36), msg1(23), msg2(28), 
  3549 ;; Auto vars:     Size  Location     Type
  3550 ;;  i               1    6[COMMON] unsigned char 
  3551 ;; Return value:  Size  Location     Type
  3552 ;;                  1    wreg      void 
  3553 ;; Registers used:
  3554 ;;		wreg, fsr0l, fsr0h, status,2, status,0, pclath, cstack
  3555 ;; Tracked objects:
  3556 ;;		On entry : 0/0
  3557 ;;		On exit  : 0/0
  3558 ;;		Unchanged: 0/0
  3559 ;; Data sizes:     COMMON   BANK0   BANK1   BANK2   BANK3   BANK4
  3560 ;;      Params:         2       0       0       0       0       0
  3561 ;;      Locals:         1       0       0       0       0       0
  3562 ;;      Temps:          3       0       0       0       0       0
  3563 ;;      Totals:         6       0       0       0       0       0
  3564 ;;Total ram usage:        6 bytes
  3565 ;; Hardware stack levels used: 1
  3566 ;; Hardware stack levels required when called: 1
  3567 ;; This function calls:
  3568 ;;		_EUSART_Write
  3569 ;; This function is called by:
  3570 ;;		_print_list
  3571 ;;		_Agend
  3572 ;;		_Next
  3573 ;;		_main
  3574 ;; This function uses a non-reentrant model
  3575 ;;
  3576                           
  3577     05FB                     _send_Msg:	
  3578                           ;psect for function _send_Msg
  3579                           
  3580     05FB                     l1450:	
  3581                           ;incstack = 0
  3582                           ; Regs used in _send_Msg: [wreg-fsr0h+status,2+status,0+pclath+cstack]
  3583                           
  3584                           
  3585                           ;main.c: 83:     uint8_t i=0;
  3586     05FB  01F6               	clrf	send_Msg@i
  3587                           
  3588                           ;main.c: 84:     while(msg[i]>0){
  3589     05FC  2E10               	goto	l1456
  3590     05FD                     l1452:
  3591                           
  3592                           ;main.c: 85:         EUSART_Write(msg[i]);
  3593     05FD  0872               	movf	send_Msg@msg+1,w
  3594     05FE  00F4               	movwf	??_send_Msg+1
  3595     05FF  0871               	movf	send_Msg@msg,w
  3596     0600  00F3               	movwf	??_send_Msg
  3597     0601  0876               	movf	send_Msg@i,w
  3598     0602  0773               	addwf	??_send_Msg,w
  3599     0603  0084               	movwf	4
  3600     0604  0874               	movf	??_send_Msg+1,w
  3601     0605  1803               	skipnc
  3602     0606  0A74               	incf	??_send_Msg+1,w
  3603     0607  0085               	movwf	5
  3604     0608  0800               	movf	0,w	;code access
  3605     0609  3185  253A  3185   	fcall	_EUSART_Write
  3606     060C                     l1454:
  3607                           
  3608                           ;main.c: 86:         i++;
  3609     060C  3001               	movlw	1
  3610     060D  00F3               	movwf	??_send_Msg
  3611     060E  0873               	movf	??_send_Msg,w
  3612     060F  07F6               	addwf	send_Msg@i,f
  3613     0610                     l1456:
  3614                           
  3615                           ;main.c: 84:     while(msg[i]>0){
  3616     0610  0872               	movf	send_Msg@msg+1,w
  3617     0611  00F4               	movwf	??_send_Msg+1
  3618     0612  0871               	movf	send_Msg@msg,w
  3619     0613  00F3               	movwf	??_send_Msg
  3620     0614  0876               	movf	send_Msg@i,w
  3621     0615  0773               	addwf	??_send_Msg,w
  3622     0616  0084               	movwf	4
  3623     0617  0874               	movf	??_send_Msg+1,w
  3624     0618  1803               	skipnc
  3625     0619  0A74               	incf	??_send_Msg+1,w
  3626     061A  0085               	movwf	5
  3627     061B  0012               	moviw fsr0++
  3628     061C  1D03               	btfss	3,2
  3629     061D  2E1F               	goto	u501
  3630     061E  2E20               	goto	u500
  3631     061F                     u501:
  3632     061F  2DFD               	goto	l1452
  3633     0620                     u500:
  3634     0620                     l1458:
  3635                           
  3636                           ;main.c: 88:     EUSART_Write(0x0D);
  3637     0620  300D               	movlw	13
  3638     0621  3185  253A  3185   	fcall	_EUSART_Write
  3639     0624                     l243:
  3640     0624  0008               	return
  3641     0625                     __end_of_send_Msg:
  3642                           
  3643                           	psect	text18
  3644     053A                     __ptext18:	
  3645 ;; *************** function _EUSART_Write *****************
  3646 ;; Defined at:
  3647 ;;		line 132 in file "mcc_generated_files/eusart.c"
  3648 ;; Parameters:    Size  Location     Type
  3649 ;;  txData          1    wreg     unsigned char 
  3650 ;; Auto vars:     Size  Location     Type
  3651 ;;  txData          1    0[COMMON] unsigned char 
  3652 ;; Return value:  Size  Location     Type
  3653 ;;                  1    wreg      void 
  3654 ;; Registers used:
  3655 ;;		wreg
  3656 ;; Tracked objects:
  3657 ;;		On entry : 0/0
  3658 ;;		On exit  : 0/0
  3659 ;;		Unchanged: 0/0
  3660 ;; Data sizes:     COMMON   BANK0   BANK1   BANK2   BANK3   BANK4
  3661 ;;      Params:         0       0       0       0       0       0
  3662 ;;      Locals:         1       0       0       0       0       0
  3663 ;;      Temps:          0       0       0       0       0       0
  3664 ;;      Totals:         1       0       0       0       0       0
  3665 ;;Total ram usage:        1 bytes
  3666 ;; Hardware stack levels used: 1
  3667 ;; This function calls:
  3668 ;;		Nothing
  3669 ;; This function is called by:
  3670 ;;		_send_Msg
  3671 ;;		_send_Name
  3672 ;;		_print_list
  3673 ;;		_Next
  3674 ;; This function uses a non-reentrant model
  3675 ;;
  3676                           
  3677     053A                     _EUSART_Write:	
  3678                           ;psect for function _EUSART_Write
  3679                           
  3680                           
  3681                           ;incstack = 0
  3682                           ; Regs used in _EUSART_Write: [wreg]
  3683                           ;EUSART_Write@txData stored from wreg
  3684     053A  00F0               	movwf	EUSART_Write@txData
  3685     053B                     l1362:
  3686     053B                     l95:	
  3687                           ;mcc_generated_files/eusart.c: 135:     {;mcc_generated_files/eusart.c: 136:     }
  3688                           
  3689                           
  3690                           ;mcc_generated_files/eusart.c: 134:     while(0 == PIR1bits.TXIF)
  3691     053B  0020               	movlb	0	; select bank0
  3692     053C  1E11               	btfss	17,4	;volatile
  3693     053D  2D3F               	goto	u421
  3694     053E  2D40               	goto	u420
  3695     053F                     u421:
  3696     053F  2D3B               	goto	l95
  3697     0540                     u420:
  3698     0540                     l1364:
  3699                           
  3700                           ;mcc_generated_files/eusart.c: 138:     TXREG = txData;
  3701     0540  0870               	movf	EUSART_Write@txData,w
  3702     0541  0023               	movlb	3	; select bank3
  3703     0542  009A               	movwf	26	;volatile
  3704     0543                     l98:
  3705     0543  0008               	return
  3706     0544                     __end_of_EUSART_Write:
  3707                           
  3708                           	psect	text19
  3709     0530                     __ptext19:	
  3710 ;; *************** function ___ctoee *****************
  3711 ;; Defined at:
  3712 ;;		line 150 in file "C:\Program Files\Microchip\xc8\v2.46\pic\sources\c99\pic\__eeprom.c"
  3713 ;; Parameters:    Size  Location     Type
  3714 ;;  addr            1    wreg     PTR eeprom void 
  3715 ;;		 -> name_list(220), 
  3716 ;;  data            1    6[COMMON] unsigned char 
  3717 ;; Auto vars:     Size  Location     Type
  3718 ;;  addr            1    7[COMMON] PTR eeprom void 
  3719 ;;		 -> name_list(220), 
  3720 ;; Return value:  Size  Location     Type
  3721 ;;                  1    wreg      unsigned char 
  3722 ;; Registers used:
  3723 ;;		wreg, fsr1l, fsr1h, status,2, status,0, pclath, cstack
  3724 ;; Tracked objects:
  3725 ;;		On entry : 0/0
  3726 ;;		On exit  : 0/0
  3727 ;;		Unchanged: 0/0
  3728 ;; Data sizes:     COMMON   BANK0   BANK1   BANK2   BANK3   BANK4
  3729 ;;      Params:         1       0       0       0       0       0
  3730 ;;      Locals:         1       0       0       0       0       0
  3731 ;;      Temps:          0       0       0       0       0       0
  3732 ;;      Totals:         2       0       0       0       0       0
  3733 ;;Total ram usage:        2 bytes
  3734 ;; Hardware stack levels used: 1
  3735 ;; Hardware stack levels required when called: 1
  3736 ;; This function calls:
  3737 ;;		___memcpyee
  3738 ;; This function is called by:
  3739 ;;		_Agend
  3740 ;;		_Next
  3741 ;;		_Erase
  3742 ;; This function uses a non-reentrant model
  3743 ;;
  3744                           
  3745     0530                     ___ctoee:	
  3746                           ;psect for function ___ctoee
  3747                           
  3748                           
  3749                           ;incstack = 0
  3750                           ; Regs used in ___ctoee: [wreg+fsr1l+fsr1h+status,2+status,0+pclath+cstack]
  3751                           ;___ctoee@addr stored from wreg
  3752     0530  00F7               	movwf	___ctoee@addr
  3753     0531                     l1470:
  3754     0531  3076               	movlw	(low (___ctoee@data| 0))& (0+255)
  3755     0532  00F0               	movwf	___memcpyee@from
  3756     0533  01F1               	clrf	___memcpyee@size
  3757     0534  0AF1               	incf	___memcpyee@size,f
  3758     0535  0877               	movf	___ctoee@addr,w
  3759     0536  3186  26D3  3185   	fcall	___memcpyee
  3760     0539                     l360:
  3761     0539  0008               	return
  3762     053A                     __end_of___ctoee:
  3763                           
  3764                           	psect	text20
  3765     06D3                     __ptext20:	
  3766 ;; *************** function ___memcpyee *****************
  3767 ;; Defined at:
  3768 ;;		line 39 in file "C:\Program Files\Microchip\xc8\v2.46\pic\sources\c99\pic\__eeprom.c"
  3769 ;; Parameters:    Size  Location     Type
  3770 ;;  to              1    wreg     PTR eeprom unsigned char
  3771 ;;		 -> name_list(220), 
  3772 ;;  from            1    0[COMMON] PTR const unsigned char 
  3773 ;;		 -> __fltoee@data(4), __fttoee@data(4), __otoee@data(8), __ltoee@data(4), 
  3774 ;;		 -> __mtoee@data(3), __itoee@data(2), __ctoee@data(1), 
  3775 ;;  size            1    1[COMMON] unsigned char 
  3776 ;; Auto vars:     Size  Location     Type
  3777 ;;  to              1    5[COMMON] PTR eeprom unsigned char
  3778 ;;		 -> name_list(220), 
  3779 ;;  ptr             1    4[COMMON] PTR const unsigned char 
  3780 ;;		 -> __fltoee@data(4), __fttoee@data(4), __otoee@data(8), __ltoee@data(4), 
  3781 ;;		 -> __mtoee@data(3), __itoee@data(2), __ctoee@data(1), 
  3782 ;; Return value:  Size  Location     Type
  3783 ;;                  1    wreg      void 
  3784 ;; Registers used:
  3785 ;;		wreg, fsr1l, fsr1h, status,2, status,0
  3786 ;; Tracked objects:
  3787 ;;		On entry : 0/0
  3788 ;;		On exit  : 0/0
  3789 ;;		Unchanged: 0/0
  3790 ;; Data sizes:     COMMON   BANK0   BANK1   BANK2   BANK3   BANK4
  3791 ;;      Params:         2       0       0       0       0       0
  3792 ;;      Locals:         2       0       0       0       0       0
  3793 ;;      Temps:          2       0       0       0       0       0
  3794 ;;      Totals:         6       0       0       0       0       0
  3795 ;;Total ram usage:        6 bytes
  3796 ;; Hardware stack levels used: 1
  3797 ;; This function calls:
  3798 ;;		Nothing
  3799 ;; This function is called by:
  3800 ;;		___ctoee
  3801 ;; This function uses a non-reentrant model
  3802 ;;
  3803                           
  3804     06D3                     ___memcpyee:	
  3805                           ;psect for function ___memcpyee
  3806                           
  3807                           
  3808                           ;incstack = 0
  3809                           ; Regs used in ___memcpyee: [wreg+fsr1l+fsr1h+status,2+status,0]
  3810                           ;___memcpyee@to stored from wreg
  3811     06D3  00F5               	movwf	___memcpyee@to
  3812     06D4                     l1366:
  3813                           
  3814                           ;C:\Program Files\Microchip\xc8\v2.46\pic\sources\c99\pic\__eeprom.c: 39: __memcpyee(__e
      +                          eprom unsigned char * to, const unsigned char *from, unsigned char size);C:\Program File
      +                          s\Microchip\xc8\v2.46\pic\sources\c99\pic\__eeprom.c: 40: {;C:\Program Files\Microchip\x
      +                          c8\v2.46\pic\sources\c99\pic\__eeprom.c: 41:  const unsigned char *ptr =from;
  3815     06D4  0870               	movf	___memcpyee@from,w
  3816     06D5  00F4               	movwf	___memcpyee@ptr
  3817     06D6                     l331:	
  3818                           ;C:\Program Files\Microchip\xc8\v2.46\pic\sources\c99\pic\__eeprom.c: 43:  while (EECON1
      +                          bits.WR) continue;
  3819                           
  3820     06D6  0023               	movlb	3	; select bank3
  3821     06D7  1895               	btfsc	21,1	;volsfr
  3822     06D8  2EDA               	goto	u431
  3823     06D9  2EDB               	goto	u430
  3824     06DA                     u431:
  3825     06DA  2ED6               	goto	l331
  3826     06DB                     u430:
  3827     06DB                     l1368:
  3828                           
  3829                           ;C:\Program Files\Microchip\xc8\v2.46\pic\sources\c99\pic\__eeprom.c: 44:  EEADR = (unsi
      +                          gned char)to - 1U;
  3830     06DB  0875               	movf	___memcpyee@to,w
  3831     06DC  3EFF               	addlw	255
  3832     06DD  00F2               	movwf	??___memcpyee
  3833     06DE  30FF               	movlw	255
  3834     06DF  1803               	skipnc
  3835     06E0  3000               	movlw	0
  3836     06E1  00F3               	movwf	??___memcpyee+1
  3837     06E2  0872               	movf	??___memcpyee,w
  3838     06E3  0091               	movwf	17	;volatile
  3839     06E4  0873               	movf	??___memcpyee+1,w
  3840     06E5  0092               	movwf	18	;volatile
  3841     06E6                     l1370:
  3842                           
  3843                           ;C:\Program Files\Microchip\xc8\v2.46\pic\sources\c99\pic\__eeprom.c: 46:  EECON1 &= 0x7
      +                          F;
  3844     06E6  307F               	movlw	127
  3845     06E7  00F2               	movwf	??___memcpyee
  3846     06E8  0872               	movf	??___memcpyee,w
  3847     06E9  0595               	andwf	21,f	;volsfr
  3848                           
  3849                           ;C:\Program Files\Microchip\xc8\v2.46\pic\sources\c99\pic\__eeprom.c: 48:  while(size--)
      +                           {
  3850     06EA  2F13               	goto	l1394
  3851     06EB                     l336:	
  3852                           ;C:\Program Files\Microchip\xc8\v2.46\pic\sources\c99\pic\__eeprom.c: 51:   }
  3853                           
  3854                           
  3855                           ;C:\Program Files\Microchip\xc8\v2.46\pic\sources\c99\pic\__eeprom.c: 49:   while (EECON
      +                          1bits.WR) {
  3856     06EB  0023               	movlb	3	; select bank3
  3857     06EC  1895               	btfsc	21,1	;volsfr
  3858     06ED  2EEF               	goto	u441
  3859     06EE  2EF0               	goto	u440
  3860     06EF                     u441:
  3861     06EF  2EEB               	goto	l336
  3862     06F0                     u440:
  3863     06F0                     l1372:
  3864                           
  3865                           ;C:\Program Files\Microchip\xc8\v2.46\pic\sources\c99\pic\__eeprom.c: 52:   EEDATA = *pt
      +                          r++;
  3866     06F0  0874               	movf	___memcpyee@ptr,w
  3867     06F1  0086               	movwf	6
  3868     06F2  0187               	clrf	7
  3869     06F3  0801               	movf	1,w
  3870     06F4  0093               	movwf	19	;volatile
  3871     06F5                     l1374:
  3872     06F5  3001               	movlw	1
  3873     06F6  00F2               	movwf	??___memcpyee
  3874     06F7  0872               	movf	??___memcpyee,w
  3875     06F8  07F4               	addwf	___memcpyee@ptr,f
  3876     06F9                     l1376:
  3877                           
  3878                           ;C:\Program Files\Microchip\xc8\v2.46\pic\sources\c99\pic\__eeprom.c: 53:   ++EEADR;
  3879     06F9  3001               	movlw	1
  3880     06FA  0791               	addwf	17,f	;volatile
  3881     06FB  3000               	movlw	0
  3882     06FC  3D92               	addwfc	18,f	;volatile
  3883     06FD                     l1378:
  3884                           
  3885                           ;C:\Program Files\Microchip\xc8\v2.46\pic\sources\c99\pic\__eeprom.c: 54:   STATUSbits.C
      +                          ARRY = 0;
  3886     06FD  0020               	movlb	0	; select bank0
  3887     06FE  1003               	bcf	3,0	;volatile
  3888     06FF                     l1380:
  3889                           
  3890                           ;C:\Program Files\Microchip\xc8\v2.46\pic\sources\c99\pic\__eeprom.c: 55:   if (INTCONbi
      +                          ts.GIE) {
  3891     06FF  1F8B               	btfss	11,7	;volatile
  3892     0700  2F02               	goto	u451
  3893     0701  2F03               	goto	u450
  3894     0702                     u451:
  3895     0702  2F04               	goto	l339
  3896     0703                     u450:
  3897     0703                     l1382:
  3898                           
  3899                           ;C:\Program Files\Microchip\xc8\v2.46\pic\sources\c99\pic\__eeprom.c: 56:    STATUSbits.
      +                          CARRY = 1;
  3900     0703  1403               	bsf	3,0	;volatile
  3901     0704                     l339:	
  3902                           ;C:\Program Files\Microchip\xc8\v2.46\pic\sources\c99\pic\__eeprom.c: 57:   }
  3903                           
  3904                           
  3905                           ;C:\Program Files\Microchip\xc8\v2.46\pic\sources\c99\pic\__eeprom.c: 58:   INTCONbits.G
      +                          IE = 0;
  3906     0704  138B               	bcf	11,7	;volatile
  3907                           
  3908                           ;C:\Program Files\Microchip\xc8\v2.46\pic\sources\c99\pic\__eeprom.c: 59:   EECON1bits.W
      +                          REN = 1;
  3909     0705  0023               	movlb	3	; select bank3
  3910     0706  1515               	bsf	21,2	;volsfr
  3911     0707                     l1384:
  3912                           
  3913                           ;C:\Program Files\Microchip\xc8\v2.46\pic\sources\c99\pic\__eeprom.c: 60:   EECON2 = 0x5
      +                          5;
  3914     0707  3055               	movlw	85
  3915     0708  0096               	movwf	22	;volsfr
  3916                           
  3917                           ;C:\Program Files\Microchip\xc8\v2.46\pic\sources\c99\pic\__eeprom.c: 61:   EECON2 = 0xA
      +                          A;
  3918     0709  30AA               	movlw	170
  3919     070A  0096               	movwf	22	;volsfr
  3920     070B                     l1386:
  3921                           
  3922                           ;C:\Program Files\Microchip\xc8\v2.46\pic\sources\c99\pic\__eeprom.c: 62:   EECON1bits.W
      +                          R = 1;
  3923     070B  1495               	bsf	21,1	;volsfr
  3924     070C                     l1388:
  3925                           
  3926                           ;C:\Program Files\Microchip\xc8\v2.46\pic\sources\c99\pic\__eeprom.c: 63:   EECON1bits.W
      +                          REN = 0;
  3927     070C  1115               	bcf	21,2	;volsfr
  3928     070D                     l1390:
  3929                           
  3930                           ;C:\Program Files\Microchip\xc8\v2.46\pic\sources\c99\pic\__eeprom.c: 64:   if (STATUSbi
      +                          ts.CARRY) {
  3931     070D  0020               	movlb	0	; select bank0
  3932     070E  1C03               	btfss	3,0	;volatile
  3933     070F  2F11               	goto	u461
  3934     0710  2F12               	goto	u460
  3935     0711                     u461:
  3936     0711  2F13               	goto	l1394
  3937     0712                     u460:
  3938     0712                     l1392:
  3939                           
  3940                           ;C:\Program Files\Microchip\xc8\v2.46\pic\sources\c99\pic\__eeprom.c: 65:    INTCONbits.
      +                          GIE = 1;
  3941     0712  178B               	bsf	11,7	;volatile
  3942     0713                     l1394:
  3943                           
  3944                           ;C:\Program Files\Microchip\xc8\v2.46\pic\sources\c99\pic\__eeprom.c: 48:  while(size--)
      +                           {
  3945     0713  3001               	movlw	1
  3946     0714  02F1               	subwf	___memcpyee@size,f
  3947     0715  0A71               	incf	___memcpyee@size,w
  3948     0716  1D03               	btfss	3,2
  3949     0717  2F19               	goto	u471
  3950     0718  2F1A               	goto	u470
  3951     0719                     u471:
  3952     0719  2EEB               	goto	l336
  3953     071A                     u470:
  3954     071A                     l342:
  3955     071A  0008               	return
  3956     071B                     __end_of___memcpyee:
  3957                           
  3958                           	psect	text21
  3959     056B                     __ptext21:	
  3960 ;; *************** function ___bmul *****************
  3961 ;; Defined at:
  3962 ;;		line 4 in file "C:\Program Files\Microchip\xc8\v2.46\pic\sources\c99\common\Umul8.c"
  3963 ;; Parameters:    Size  Location     Type
  3964 ;;  multiplier      1    wreg     unsigned char 
  3965 ;;  multiplicand    1    0[COMMON] unsigned char 
  3966 ;; Auto vars:     Size  Location     Type
  3967 ;;  multiplier      1    3[COMMON] unsigned char 
  3968 ;;  product         1    2[COMMON] unsigned char 
  3969 ;; Return value:  Size  Location     Type
  3970 ;;                  1    wreg      unsigned char 
  3971 ;; Registers used:
  3972 ;;		wreg, status,2, status,0
  3973 ;; Tracked objects:
  3974 ;;		On entry : 0/0
  3975 ;;		On exit  : 0/0
  3976 ;;		Unchanged: 0/0
  3977 ;; Data sizes:     COMMON   BANK0   BANK1   BANK2   BANK3   BANK4
  3978 ;;      Params:         1       0       0       0       0       0
  3979 ;;      Locals:         2       0       0       0       0       0
  3980 ;;      Temps:          1       0       0       0       0       0
  3981 ;;      Totals:         4       0       0       0       0       0
  3982 ;;Total ram usage:        4 bytes
  3983 ;; Hardware stack levels used: 1
  3984 ;; This function calls:
  3985 ;;		Nothing
  3986 ;; This function is called by:
  3987 ;;		_print_list
  3988 ;;		_Agend
  3989 ;;		_Next
  3990 ;;		_Erase
  3991 ;; This function uses a non-reentrant model
  3992 ;;
  3993                           
  3994     056B                     ___bmul:	
  3995                           ;psect for function ___bmul
  3996                           
  3997                           
  3998                           ;incstack = 0
  3999                           ; Regs used in ___bmul: [wreg+status,2+status,0]
  4000                           ;___bmul@multiplier stored from wreg
  4001     056B  00F3               	movwf	___bmul@multiplier
  4002     056C                     l1474:
  4003     056C  01F2               	clrf	___bmul@product
  4004     056D                     l1476:
  4005     056D  1C73               	btfss	___bmul@multiplier,0
  4006     056E  2D70               	goto	u521
  4007     056F  2D71               	goto	u520
  4008     0570                     u521:
  4009     0570  2D75               	goto	l1480
  4010     0571                     u520:
  4011     0571                     l1478:
  4012     0571  0870               	movf	___bmul@multiplicand,w
  4013     0572  00F1               	movwf	??___bmul
  4014     0573  0871               	movf	??___bmul,w
  4015     0574  07F2               	addwf	___bmul@product,f
  4016     0575                     l1480:
  4017     0575  1003               	clrc
  4018     0576  0DF0               	rlf	___bmul@multiplicand,f
  4019     0577                     l1482:
  4020     0577  1003               	clrc
  4021     0578  0CF3               	rrf	___bmul@multiplier,f
  4022     0579  0873               	movf	___bmul@multiplier,w
  4023     057A  1D03               	btfss	3,2
  4024     057B  2D7D               	goto	u531
  4025     057C  2D7E               	goto	u530
  4026     057D                     u531:
  4027     057D  2D6D               	goto	l1476
  4028     057E                     u530:
  4029     057E                     l1484:
  4030     057E  0872               	movf	___bmul@product,w
  4031     057F                     l478:
  4032     057F  0008               	return
  4033     0580                     __end_of___bmul:
  4034                           
  4035                           	psect	text22
  4036     055C                     __ptext22:	
  4037 ;; *************** function _EUSART_Read *****************
  4038 ;; Defined at:
  4039 ;;		line 113 in file "mcc_generated_files/eusart.c"
  4040 ;; Parameters:    Size  Location     Type
  4041 ;;		None
  4042 ;; Auto vars:     Size  Location     Type
  4043 ;;		None
  4044 ;; Return value:  Size  Location     Type
  4045 ;;                  1    wreg      unsigned char 
  4046 ;; Registers used:
  4047 ;;		wreg, status,2
  4048 ;; Tracked objects:
  4049 ;;		On entry : 0/0
  4050 ;;		On exit  : 0/0
  4051 ;;		Unchanged: 0/0
  4052 ;; Data sizes:     COMMON   BANK0   BANK1   BANK2   BANK3   BANK4
  4053 ;;      Params:         0       0       0       0       0       0
  4054 ;;      Locals:         0       0       0       0       0       0
  4055 ;;      Temps:          0       0       0       0       0       0
  4056 ;;      Totals:         0       0       0       0       0       0
  4057 ;;Total ram usage:        0 bytes
  4058 ;; Hardware stack levels used: 1
  4059 ;; This function calls:
  4060 ;;		Nothing
  4061 ;; This function is called by:
  4062 ;;		_Agend
  4063 ;;		_main
  4064 ;; This function uses a non-reentrant model
  4065 ;;
  4066                           
  4067     055C                     _EUSART_Read:	
  4068                           ;psect for function _EUSART_Read
  4069                           
  4070     055C                     l1430:	
  4071                           ;incstack = 0
  4072                           ; Regs used in _EUSART_Read: [wreg+status,2]
  4073                           
  4074     055C                     l88:	
  4075                           ;mcc_generated_files/eusart.c: 116:     {;mcc_generated_files/eusart.c: 117:     }
  4076                           
  4077                           
  4078                           ;mcc_generated_files/eusart.c: 115:     while(!PIR1bits.RCIF)
  4079     055C  0020               	movlb	0	; select bank0
  4080     055D  1E91               	btfss	17,5	;volatile
  4081     055E  2D60               	goto	u481
  4082     055F  2D61               	goto	u480
  4083     0560                     u481:
  4084     0560  2D5C               	goto	l88
  4085     0561                     u480:
  4086     0561                     l1432:
  4087                           
  4088                           ;mcc_generated_files/eusart.c: 119:     eusartRxLastError.status = 0;
  4089     0561  01BA               	clrf	_eusartRxLastError	;volatile
  4090     0562                     l1434:
  4091                           
  4092                           ;mcc_generated_files/eusart.c: 121:     if(1 == RCSTAbits.OERR)
  4093     0562  0023               	movlb	3	; select bank3
  4094     0563  1C9D               	btfss	29,1	;volatile
  4095     0564  2D66               	goto	u491
  4096     0565  2D67               	goto	u490
  4097     0566                     u491:
  4098     0566  2D69               	goto	l1438
  4099     0567                     u490:
  4100     0567                     l1436:
  4101                           
  4102                           ;mcc_generated_files/eusart.c: 122:     {;mcc_generated_files/eusart.c: 125:         RCS
      +                          TAbits.CREN = 0;
  4103     0567  121D               	bcf	29,4	;volatile
  4104                           
  4105                           ;mcc_generated_files/eusart.c: 126:         RCSTAbits.CREN = 1;
  4106     0568  161D               	bsf	29,4	;volatile
  4107     0569                     l1438:
  4108                           
  4109                           ;mcc_generated_files/eusart.c: 129:     return RCREG;
  4110     0569  0819               	movf	25,w	;volatile
  4111     056A                     l92:
  4112     056A  0008               	return
  4113     056B                     __end_of_EUSART_Read:
  4114     007E                     btemp	set	126	;btemp
  4115     007E                     wtemp0	set	126
  4116                           
  4117                           	psect	config
  4118                           
  4119                           ;Config register CONFIG1 @ 0x8007
  4120                           ;	Oscillator Selection
  4121                           ;	FOSC = INTOSC, INTOSC oscillator: I/O function on CLKIN pin
  4122                           ;	Watchdog Timer Enable
  4123                           ;	WDTE = OFF, WDT disabled
  4124                           ;	Power-up Timer Enable
  4125                           ;	PWRTE = OFF, PWRT disabled
  4126                           ;	MCLR Pin Function Select
  4127                           ;	MCLRE = ON, MCLR/VPP pin function is MCLR
  4128                           ;	Flash Program Memory Code Protection
  4129                           ;	CP = OFF, Program memory code protection is disabled
  4130                           ;	Data Memory Code Protection
  4131                           ;	CPD = OFF, Data memory code protection is disabled
  4132                           ;	Brown-out Reset Enable
  4133                           ;	BOREN = ON, Brown-out Reset enabled
  4134                           ;	Clock Out Enable
  4135                           ;	CLKOUTEN = OFF, CLKOUT function is disabled. I/O or oscillator function on the CLKOUT 
      +                          pin
  4136                           ;	Internal/External Switchover
  4137                           ;	IESO = ON, Internal/External Switchover mode is enabled
  4138                           ;	Fail-Safe Clock Monitor Enable
  4139                           ;	FCMEN = ON, Fail-Safe Clock Monitor is enabled
  4140     8007                     	org	32775
  4141     8007  3FE4               	dw	16356
  4142                           
  4143                           ;Config register CONFIG2 @ 0x8008
  4144                           ;	Flash Memory Self-Write Protection
  4145                           ;	WRT = OFF, Write protection off
  4146                           ;	PLL Enable
  4147                           ;	PLLEN = OFF, 4x PLL disabled
  4148                           ;	Stack Overflow/Underflow Reset Enable
  4149                           ;	STVREN = ON, Stack Overflow or Underflow will cause a Reset
  4150                           ;	Brown-out Reset Voltage Selection
  4151                           ;	BORV = LO, Brown-out Reset Voltage (Vbor), low trip point selected.
  4152                           ;	In-Circuit Debugger Mode
  4153                           ;	DEBUG = 0x1, unprogrammed default
  4154                           ;	Low-Voltage Programming Enable
  4155                           ;	LVP = ON, Low-voltage programming enabled
  4156     8008                     	org	32776
  4157     8008  3EFF               	dw	16127

Data Sizes:
    Strings     0
    Constant    341
    Data        0
    BSS         247
    Persistent  38
    Stack       0

Auto Spaces:
    Space          Size  Autos    Used
    COMMON           14     14      14
    BANK0            80      5      38
    BANK1            80      0       0
    BANK2            80      0       0
    BANK3            80      0       0
    BANK4            48      0       0

Pointer List with Targets:

    __eecpymem@cp	PTR volatile unsigned char  size(1) Largest target is 8
		 -> __eetoc@data(COMMON[1]), __eetofl@data(COMMON[4]), __eetoft@data(COMMON[4]), __eetoi@data(COMMON[2]), 
		 -> __eetol@data(COMMON[4]), __eetom@data(COMMON[3]), __eetoo@data(COMMON[8]), 

    __eecpymem@from	PTR eeprom unsigned char  size(1) Largest target is 220
		 -> name_list(EEDATA[220]), name_list$nome(EEDATA[21]), 

    __eecpymem@to	PTR volatile unsigned char  size(1) Largest target is 8
		 -> __eetoc@data(COMMON[1]), __eetofl@data(COMMON[4]), __eetoft@data(COMMON[4]), __eetoi@data(COMMON[2]), 
		 -> __eetol@data(COMMON[4]), __eetom@data(COMMON[3]), __eetoo@data(COMMON[8]), 

    __eetoc@addr	PTR eeprom void  size(1) Largest target is 220
		 -> name_list(EEDATA[220]), name_list$nome(EEDATA[21]), 

    EUSART_ErrorHandler	PTR FTN()void  size(2) Largest target is 1
		 -> EUSART_DefaultErrorHandler(), NULL(), 

    EUSART_FramingErrorHandler	PTR FTN()void  size(2) Largest target is 1
		 -> EUSART_DefaultFramingErrorHandler(), NULL(), 

    EUSART_OverrunErrorHandler	PTR FTN()void  size(2) Largest target is 1
		 -> EUSART_DefaultOverrunErrorHandler(), NULL(), 

    EUSART_SetErrorHandler@interruptHandler	PTR FTN()void  size(2) Largest target is 1
		 -> EUSART_DefaultErrorHandler(), 

    EUSART_SetFramingErrorHandler@interruptHandler	PTR FTN()void  size(2) Largest target is 1
		 -> EUSART_DefaultFramingErrorHandler(), 

    EUSART_SetOverrunErrorHandler@interruptHandler	PTR FTN()void  size(2) Largest target is 1
		 -> EUSART_DefaultOverrunErrorHandler(), 

    __memcpyee@from	PTR const unsigned char  size(1) Largest target is 8
		 -> __ctoee@data(COMMON[1]), __fltoee@data(COMMON[4]), __fttoee@data(COMMON[4]), __itoee@data(COMMON[2]), 
		 -> __ltoee@data(COMMON[4]), __mtoee@data(COMMON[3]), __otoee@data(COMMON[8]), 

    __memcpyee@ptr	PTR const unsigned char  size(1) Largest target is 8
		 -> __ctoee@data(COMMON[1]), __fltoee@data(COMMON[4]), __fttoee@data(COMMON[4]), __itoee@data(COMMON[2]), 
		 -> __ltoee@data(COMMON[4]), __mtoee@data(COMMON[3]), __otoee@data(COMMON[8]), 

    __memcpyee@to	PTR eeprom unsigned char  size(1) Largest target is 220
		 -> name_list(EEDATA[220]), 

    send_Msg@msg	PTR const unsigned char  size(2) Largest target is 50
		 -> msg0(CODE[50]), msg1(CODE[23]), msg2(CODE[28]), msg3(CODE[9]), 
		 -> msg4(CODE[15]), msg5(CODE[38]), msg7(CODE[36]), 

    send_Name@name	PTR unsigned char  size(1) Largest target is 220
		 -> name_list(EEDATA[220]), name_list$nome(EEDATA[21]), 


Critical Paths under _main in COMMON

    _main->_Agend
    _print_list->_send_Name
    _EUSART_Initialize->_EUSART_SetErrorHandler
    _EUSART_Initialize->_EUSART_SetFramingErrorHandler
    _EUSART_Initialize->_EUSART_SetOverrunErrorHandler
    _Next->_send_Name
    _send_Name->___eetoc
    ___eetoc->___eecpymem
    _Erase->___ctoee
    _Agend->___ctoee
    _send_Msg->_EUSART_Write
    ___ctoee->___memcpyee

Critical Paths under _main in BANK0

    _main->_Next

Critical Paths under _main in BANK1

    None.

Critical Paths under _main in BANK2

    None.

Critical Paths under _main in BANK3

    None.

Critical Paths under _main in BANK4

    None.

Call Graph Tables:

 ---------------------------------------------------------------------------------
 (Depth) Function   	        Calls       Base Space   Used Autos Params    Refs
 ---------------------------------------------------------------------------------
 (0) _main                                                 0     0      0   14901
                              _Agend
                        _EUSART_Read
                 _EUSART_is_rx_ready
                              _Erase
                               _Next
                  _SYSTEM_Initialize
                         _print_list
                           _send_Msg
 ---------------------------------------------------------------------------------
 (1) _print_list                                           2     2      0    3932
                                             11 COMMON     2     2      0
                       _EUSART_Write
                             ___bmul
                            ___eetoc
                           _send_Msg
                          _send_Name
 ---------------------------------------------------------------------------------
 (1) _SYSTEM_Initialize                                    0     0      0     294
                  _EUSART_Initialize
              _OSCILLATOR_Initialize
             _PIN_MANAGER_Initialize
                     _WDT_Initialize
 ---------------------------------------------------------------------------------
 (2) _WDT_Initialize                                       0     0      0       0
 ---------------------------------------------------------------------------------
 (2) _PIN_MANAGER_Initialize                               0     0      0       0
 ---------------------------------------------------------------------------------
 (2) _OSCILLATOR_Initialize                                0     0      0       0
 ---------------------------------------------------------------------------------
 (2) _EUSART_Initialize                                    0     0      0     294
             _EUSART_SetErrorHandler
      _EUSART_SetFramingErrorHandler
      _EUSART_SetOverrunErrorHandler
 ---------------------------------------------------------------------------------
 (3) _EUSART_SetOverrunErrorHandler                        2     0      2      98
                                              0 COMMON     2     0      2
 ---------------------------------------------------------------------------------
 (3) _EUSART_SetFramingErrorHandler                        2     0      2      98
                                              0 COMMON     2     0      2
 ---------------------------------------------------------------------------------
 (3) _EUSART_SetErrorHandler                               2     0      2      98
                                              0 COMMON     2     0      2
 ---------------------------------------------------------------------------------
 (1) _Next                                                 5     5      0    5411
                                              0 BANK0      5     5      0
                       _EUSART_Write
                             ___bmul
                            ___ctoee
                            ___eetoc
                           _send_Msg
                          _send_Name
 ---------------------------------------------------------------------------------
 (2) _send_Name                                            3     3      0    1513
                                              8 COMMON     3     3      0
                       _EUSART_Write
                            ___eetoc
 ---------------------------------------------------------------------------------
 (3) ___eetoc                                              2     2      0    1335
                                              6 COMMON     2     2      0
                         ___eecpymem
 ---------------------------------------------------------------------------------
 (4) ___eecpymem                                           6     4      2    1229
                                              0 COMMON     6     4      2
 ---------------------------------------------------------------------------------
 (1) _Erase                                                3     3      0    1867
                                              8 COMMON     3     3      0
                             ___bmul
                            ___ctoee
 ---------------------------------------------------------------------------------
 (1) _EUSART_is_rx_ready                                   0     0      0       0
 ---------------------------------------------------------------------------------
 (1) _Agend                                                6     6      0    2677
                                              8 COMMON     6     6      0
                        _EUSART_Read
                             ___bmul
                            ___ctoee
                           _send_Msg
 ---------------------------------------------------------------------------------
 (1) _send_Msg                                             6     4      2     720
                                              1 COMMON     6     4      2
                       _EUSART_Write
 ---------------------------------------------------------------------------------
 (2) _EUSART_Write                                         1     1      0      22
                                              0 COMMON     1     1      0
 ---------------------------------------------------------------------------------
 (2) ___ctoee                                              2     1      1    1547
                                              6 COMMON     2     1      1
                             ___bmul (ARG)
                         ___memcpyee
 ---------------------------------------------------------------------------------
 (3) ___memcpyee                                           6     4      2    1397
                                              0 COMMON     6     4      2
 ---------------------------------------------------------------------------------
 (2) ___bmul                                               4     3      1     274
                                              0 COMMON     4     3      1
 ---------------------------------------------------------------------------------
 (1) _EUSART_Read                                          0     0      0       0
 ---------------------------------------------------------------------------------
 Estimated maximum stack depth 4
 ---------------------------------------------------------------------------------

 Call Graph Graphs:

 _main (ROOT)
   _Agend
     _EUSART_Read
     ___bmul
     ___ctoee
       ___bmul (ARG)
       ___memcpyee (ARG)
     _send_Msg
       _EUSART_Write
   _EUSART_Read
   _EUSART_is_rx_ready
   _Erase
     ___bmul
     ___ctoee
   _Next
     _EUSART_Write
     ___bmul
     ___ctoee
     ___eetoc
       ___eecpymem
     _send_Msg
     _send_Name
       _EUSART_Write
       ___eetoc
   _SYSTEM_Initialize
     _EUSART_Initialize
       _EUSART_SetErrorHandler
       _EUSART_SetFramingErrorHandler
       _EUSART_SetOverrunErrorHandler
     _OSCILLATOR_Initialize
     _PIN_MANAGER_Initialize
     _WDT_Initialize
   _print_list
     _EUSART_Write
     ___bmul
     ___eetoc
     _send_Msg
     _send_Name
   _send_Msg

 Address spaces:
Name               Size   Autos  Total    Cost      Usage
BIGRAM             170      0       0       0        0.0%
EEDATA             100      0      DC       0       85.9%
NULL                 0      0       0       0        0.0%
CODE                 0      0       0       0        0.0%
BITCOMMON            E      0       0       1        0.0%
BITSFR0              0      0       0       1        0.0%
SFR0                 0      0       0       1        0.0%
COMMON               E      E       E       2      100.0%
BITSFR1              0      0       0       2        0.0%
SFR1                 0      0       0       2        0.0%
BITSFR2              0      0       0       3        0.0%
SFR2                 0      0       0       3        0.0%
STACK                0      0       0       3        0.0%
BITSFR3              0      0       0       4        0.0%
SFR3                 0      0       0       4        0.0%
ABS                  0      0      34       4        0.0%
BITBANK0            50      0       0       5        0.0%
BITSFR4              0      0       0       5        0.0%
SFR4                 0      0       0       5        0.0%
BANK0               50      5      26       6       47.5%
BITSFR5              0      0       0       6        0.0%
SFR5                 0      0       0       6        0.0%
BITBANK1            50      0       0       7        0.0%
BITSFR6              0      0       0       7        0.0%
SFR6                 0      0       0       7        0.0%
BANK1               50      0       0       8        0.0%
BITSFR7              0      0       0       8        0.0%
SFR7                 0      0       0       8        0.0%
BITBANK2            50      0       0       9        0.0%
BITSFR8              0      0       0       9        0.0%
SFR8                 0      0       0       9        0.0%
BANK2               50      0       0      10        0.0%
BITSFR9              0      0       0      10        0.0%
SFR9                 0      0       0      10        0.0%
BITBANK3            50      0       0      11        0.0%
BITSFR10             0      0       0      11        0.0%
SFR10                0      0       0      11        0.0%
BANK3               50      0       0      12        0.0%
BITSFR11             0      0       0      12        0.0%
SFR11                0      0       0      12        0.0%
BITBANK4            30      0       0      13        0.0%
BITSFR12             0      0       0      13        0.0%
SFR12                0      0       0      13        0.0%
BANK4               30      0       0      14        0.0%
BITSFR13             0      0       0      14        0.0%
SFR13                0      0       0      14        0.0%
BITSFR14             0      0       0      15        0.0%
SFR14                0      0       0      15        0.0%
DATA                 0      0      34      15        0.0%
BITSFR15             0      0       0      16        0.0%
SFR15                0      0       0      16        0.0%
BITSFR16             0      0       0      17        0.0%
SFR16                0      0       0      17        0.0%
BITSFR17             0      0       0      18        0.0%
SFR17                0      0       0      18        0.0%
BITSFR18             0      0       0      19        0.0%
SFR18                0      0       0      19        0.0%
BITSFR19             0      0       0      20        0.0%
SFR19                0      0       0      20        0.0%
BITSFR20             0      0       0      21        0.0%
SFR20                0      0       0      21        0.0%
BITSFR21             0      0       0      22        0.0%
SFR21                0      0       0      22        0.0%
BITSFR22             0      0       0      23        0.0%
SFR22                0      0       0      23        0.0%
BITSFR23             0      0       0      24        0.0%
SFR23                0      0       0      24        0.0%
BITSFR24             0      0       0      25        0.0%
SFR24                0      0       0      25        0.0%
BITSFR25             0      0       0      26        0.0%
SFR25                0      0       0      26        0.0%
BITSFR26             0      0       0      27        0.0%
SFR26                0      0       0      27        0.0%
BITSFR27             0      0       0      28        0.0%
SFR27                0      0       0      28        0.0%
BITSFR28             0      0       0      29        0.0%
SFR28                0      0       0      29        0.0%
BITSFR29             0      0       0      30        0.0%
SFR29                0      0       0      30        0.0%
BITSFR30             0      0       0      31        0.0%
SFR30                0      0       0      31        0.0%
BITSFR31             0      0       0      32        0.0%
SFR31                0      0       0      32        0.0%


Microchip Technology PIC Macro Assembler V2.46 build 20240104201356 
Symbol Table                                                                                   Mon Aug 05 11:45:43 2024

                               ___bmul@product 0072                                             l25 0597  
                                           l71 05D7                                             l92 056A  
                                           l95 053B                                             l79 0510  
                                           l88 055C                                             l98 0543  
                                          l110 051C                                            l113 0522  
                                          l116 0516                                            l141 050B  
                                          l135 055B                                            l138 052F  
                                          l331 06D6                                            l243 0624  
                                          l324 0635                                            l342 071A  
                                          l319 0628                                            l336 06EB  
                                          l360 0539                                            l328 0652  
                                          l345 054E                                            l249 05B5  
                                          l257 0690                                            l274 07F4  
                                          l290 0694                                            l339 0704  
                                          l285 05FA                                            l279 0771  
                                          l478 057F                                            u400 0639  
                                          u401 0638                                            u410 0652  
                                          u411 0651                                            u420 0540  
                                          u500 0620                                            u421 053F  
                                          u501 061F                                            u430 06DB  
                                          u510 05B1                                            u431 06DA  
                                          u511 05B0                                            u520 0571  
                                          u440 06F0                                            u600 07CE  
                                          u521 0570                                            u441 06EF  
                                          u601 07CD                                            u530 057E  
                                          u450 0703                                            u610 07EF  
                                          u531 057D                                            u451 0702  
                                          u611 07EE                                            u460 0712  
                                          u620 0733                                            u540 0659  
                                          u461 0711                                            u621 0732  
                                          u541 0658                                            u470 071A  
                                          u630 05F8                                            u390 062D  
                                          u550 0690                                            u471 0719  
                                          u631 05F7                                            u391 062C  
                                          u551 068F                                            u480 0561  
                                          u560 0784                                            u640 069C  
                                          u481 0560                                            u561 0783  
                                          u625 072F                                            u641 069B  
                                          u490 0567                                            u570 079E  
                                          u650 06A7                                            u491 0566  
                                          u571 079D                                            u635 05F4  
                                          u651 06A6                                            u580 07A4  
                                          u660 06B1                                            u581 07A3  
                                          u661 06B0                                            u590 07C8  
                                          u670 06BB                                            u591 07C7  
                                          u671 06BA                                            u680 06C5  
                                          u681 06C4                                   ___ctoee@addr 0077  
                                 ___ctoee@data 0076                 ?_EUSART_SetFramingErrorHandler 0070  
                                          wreg 0009                                   ?_EUSART_Read 0070  
                                         l1410 058B                                           l1402 0580  
                                         l1340 0626                                           l1420 05BF  
                                         l1412 0590                                           l1404 0583  
                                         l1500 0668                                           l1430 055C  
                                         l1350 0643                                           l1342 062D  
                                         l1422 05C0                                           l1414 0592  
                                         l1406 0586                                           l1502 066A  
                                         l1510 0689                                           l1432 0561  
                                         l1520 0798                                           l1512 0772  
                                         l1352 0647                                           l1344 0639  
                                         l1360 0511                                           l1424 05C7  
                                         l1416 0595                                           l1408 0588  
                                         l1504 066E                                           l1434 0562  
                                         l1370 06E6                                           l1362 053B  
                                         l1450 05FB                                           l1530 07B9  
                                         l1522 079E                                           l1514 0784  
                                         l1346 063D                                           l1354 064B  
                                         l1426 05CE                                           l1418 05B6  
                                         l1442 0529                                           l1506 067B  
                                         l1436 0567                                           l1380 06FF  
                                         l1372 06F0                                           l1364 0540  
                                         l1452 05FD                                           l1540 07D0  
                                         l1532 07BE                                           l1524 07A4  
                                         l1516 078C                                           l1348 063E  
                                         l1460 0599                                           l1356 0517  
                                         l1428 05D5                                           l1444 052C  
                                         l1508 0685                                           l1438 0569  
                                         l1390 070D                                           l1382 0703  
                                         l1374 06F5                                           l1366 06D4  
                                         l1470 0531                                           l1454 060C  
                                         l1542 07E2                                           l1534 07C2  
                                         l1526 07AC                                           l1518 0793  
                                         l1462 059B                                           l1550 0733  
                                         l1358 051D                                           l1446 052D  
                                         l1480 0575                                           l1392 0712  
                                         l1384 0707                                           l1376 06F9  
                                         l1368 06DB                                           l1456 0610  
                                         l1544 07E6                                           l1536 07C8  
                                         l1528 07AE                                           l1464 05A3  
                                         l1560 0761                                           l1552 073B  
                                         l1448 0508                                           l1482 0577  
                                         l1474 056C                                           l1386 070B  
                                         l1378 06FD                                           l1394 0713  
                                         l1458 0620                                           l1546 07EF  
                                         l1538 07CE                                           l1570 05EA  
                                         l1466 05A7                                           l1562 076C  
                                         l1554 0742                                           l1484 057E  
                                         l1476 056D                                           l1388 070C  
                                         l1572 05F8                                           l1564 05D8  
                                         l1396 0545                                           l1468 05B1  
                                         l1556 074F                                           l1548 071B  
                                         l1492 054F                                           l1580 06A7  
                                         l1478 0571                                           l1566 05DB  
                                         l1398 054D                                           l1558 0753  
                                         l1494 0653                                           l1590 06BF  
                                         l1582 06AB                                           l1574 0691  
                                         l1488 050C                                           l1568 05E6  
                                         l1496 0659                                           l1592 06C5  
                                         l1584 06B1                                           l1576 069C  
                                         l1498 0661                                           l1594 06C9  
                                         l1586 06B5                                           l1578 06A1  
                                         l1588 06BB                                           _LATA 010C  
                                         _LATB 010D                                           _WPUA 020C  
                                         _WPUB 020D                                           _Next 071B  
                                         _main 0691                                           _msg0 0800  
                                         _msg1 08FA                                           _msg2 08DE  
                                         _msg3 094C                                           _msg4 093D  
                                         _msg5 0858                                           _msg6 0832  
                                         _msg7 087E                                           _msg8 08C2  
                                         fsr0h 0005                                           fsr1h 0007  
                                         indf0 0000                                           fsr0l 0004  
                                         indf1 0001                                           fsr1l 0006  
                                         btemp 007E                                           start 0002  
                            ___bmul@multiplier 0073                                  ?_EUSART_Write 0070  
                                        ?_Next 0070                  __end_of_OSCILLATOR_Initialize 0530  
                                        ?_main 0070                                __end_of___eetoc 054F  
                                        _EEADR 0191                                __end_of___ctoee 053A  
                                        _RCREG 0199                                          _RCSTA 019D  
                                        _TRISA 008C                                          _TRISB 008D  
                                        _TXREG 019A                                          _Agend 0772  
                                        _TXSTA 019E                                          _Erase 05D8  
                                        _debug 0927                                 _WDT_Initialize 0508  
                                ___memcpyee@to 0075                                          status 0003  
                                        wtemp0 007E                                __initialization 07F5  
                                 __end_of_Next 0772                                   __end_of_main 06D3  
                                 __end_of_msg0 0832                                   __end_of_msg1 0911  
                                 __end_of_msg2 08FA                                   __end_of_msg3 0955  
                                 __end_of_msg4 094C                                   __end_of_msg5 087E  
                                 __end_of_msg6 0858                                   __end_of_msg7 08A2  
                                 __end_of_msg8 08DE                                 ??_EUSART_Write 0070  
                                       ??_Next 0041                                         ??_main 007E  
                                       ?_Agend 0070                                         ?_Erase 0070  
                       __end_of_WDT_Initialize 050C              _EUSART_DefaultFramingErrorHandler 0000  
                   _EUSART_OverrunErrorHandler 003D                                         _EEADRH 0192  
                                       _EEADRL 0191                                         _EEDATA 0193  
                                       _EEDATH 0194                                         _EEDATL 0193  
                                       _EECON1 0195                                         _EECON2 0196  
                                       _ANSELA 018C                                         _ANSELB 018D  
                                       Agend@i 007C                                         Agend@j 007D  
                   __end_of_EUSART_is_rx_ready 0511                                         _BORCON 0116  
                                       _OSCCON 0099                                         _SPBRGH 019C  
                                       _SPBRGL 019B                                         _WDTCON 0097  
                                       Erase@i 0079                                         ___bmul 056B  
                                    ??___eetoc 0076                                         _debug1 08A2  
                                       _debug2 0911                                      ??___ctoee 0077  
                             __end_of_send_Msg 0625                                ?_WDT_Initialize 0070  
                               ___memcpyee@ptr 0074                                     ___eecpymem 0625  
                            _SYSTEM_Initialize 054F                        __end_of__initialization 07FD  
                           ?_SYSTEM_Initialize 0070                            ___bmul@multiplicand 0070  
                                __end_of_Agend 07F5                                     ___memcpyee 06D3  
                                __end_of_Erase 05FB                                 __pcstackCOMMON 0070  
                          ??_SYSTEM_Initialize 0072                                  __end_of_debug 093D  
                               _OPTION_REGbits 0095                                        ??_Agend 0078  
                                      ??_Erase 0078                ??_EUSART_SetOverrunErrorHandler 0072  
                    __end_of_SYSTEM_Initialize 055C                                     __pbssBANK0 0020  
                         __end_of_EUSART_Write 0544                                     __pmaintext 0691  
                                      ?___bmul 0070                                        _BAUDCON 019F  
                                      _APFCON0 011D                                        _APFCON1 011E  
                                  send_Msg@msg 0071                                        _OSCTUNE 0098  
                     ??_EUSART_SetErrorHandler 0072                                    ?___eecpymem 0070  
                                send_Name@name 007A                                      ?_send_Msg 0071  
                                  ?___memcpyee 0070                                        ___eetoc 0544  
                                      ___ctoee 0530                                        __ptext1 0653  
                                      __ptext2 054F                                        __ptext3 0508  
                                      __ptext4 0580                                        __ptext5 0529  
                                      __ptext6 05B6                                        __ptext7 051D  
                                      __ptext8 0517                                        __ptext9 0511  
                                      _command 0038                          _OSCILLATOR_Initialize 0529  
                                      _receive 0035                       ??_PIN_MANAGER_Initialize 0070  
                                      clrloop0 0524                              __end_of_send_Name 05B6  
                         end_of_initialization 07FD          __end_of_EUSART_SetOverrunErrorHandler 0523  
                _EUSART_SetOverrunErrorHandler 051D                              _EUSART_Initialize 05B6  
                                   ??_send_Msg 0073                             ?_EUSART_Initialize 0070  
                                    _RCSTAbits 019D                             _EUSART_is_rx_ready 050C  
                              ___memcpyee@from 0070                                ___memcpyee@size 0071  
                          ??_EUSART_Initialize 0072                               ??_WDT_Initialize 0070  
                          ?_EUSART_is_rx_ready 0070                                     _print_list 0653  
                    __end_of_EUSART_Initialize 05D8                           ??_EUSART_is_rx_ready 0070  
                                    _TXSTAbits 019E                                    print_list@k 007C  
                               __end_of___bmul 0580                     _EUSART_DefaultErrorHandler 0000  
                               __end_of_debug1 08C2                                 __end_of_debug2 0927  
                                 _EUSART_Write 053A                         ?_OSCILLATOR_Initialize 0070  
                          start_initialization 07F5                                  ??_EUSART_Read 0070  
               ?_EUSART_SetOverrunErrorHandler 0070                     _EUSART_FramingErrorHandler 003F  
                                     ??___bmul 0071                         _EUSART_SetErrorHandler 0511  
                                  ?_print_list 0070                                    __pbssEEDATA 0000  
                                    ___latbits 0001                                  __pcstackBANK0 0041  
                                 ??___eecpymem 0072                            __end_of_EUSART_Read 056B  
                                    __pnvBANK0 003B                                      _ang_count 0037  
                                 ??___memcpyee 0072                         _PIN_MANAGER_Initialize 0580  
                                   send_Name@i 0079                                       ?___eetoc 0070  
                                     ?___ctoee 0076                                      _buffer_rx 0020  
                           __end_of___eecpymem 0653                                      _name_list 0000  
                           __end_of___memcpyee 071B                                    _atend_count 0036  
       EUSART_SetErrorHandler@interruptHandler 0070                                      _send_Name 0598  
                                    clear_ram0 0523                              _eusartRxLastError 003A  
                                     _PIR1bits 0011                ??_EUSART_SetFramingErrorHandler 0072  
            _EUSART_DefaultOverrunErrorHandler 0000                                    _EUSART_Read 055C  
                                   ?_send_Name 0070                                     _EECON1bits 0195  
                      ??_OSCILLATOR_Initialize 0070                            _EUSART_ErrorHandler 003B  
                                     __ptext10 071B                                       __ptext11 0598  
                                     __ptext20 06D3                                       __ptext12 0544  
                                     __ptext21 056B                                       __ptext13 0625  
                                     __ptext22 055C                                       __ptext14 05D8  
                                     __ptext15 050C                                       __ptext16 0772  
                                     __ptext17 05FB                                       __ptext18 053A  
                                     __ptext19 0530                                      send_Msg@i 0076  
                                     _send_Msg 05FB                        ?_EUSART_SetErrorHandler 0070  
EUSART_SetOverrunErrorHandler@interruptHandler 0070                                       _rx_count 0039  
        __end_of_EUSART_SetFramingErrorHandler 051D                  _EUSART_SetFramingErrorHandler 0517  
                              ___eecpymem@from 0070                                ___eecpymem@size 0071  
                                 ??_print_list 007B                                     _INTCONbits 000B  
                               __pstringtext10 08FA                                 __pstringtext11 093D  
                               __pstringtext12 094C                        ?_PIN_MANAGER_Initialize 0070  
                                  ??_send_Name 0078                 __end_of_EUSART_SetErrorHandler 0517  
                           __end_of_print_list 0691  EUSART_SetFramingErrorHandler@interruptHandler 0070  
                                __pstringtext1 0832                                  __pstringtext2 08A2  
                                __pstringtext3 08C2                                  __pstringtext4 0911  
                                __pstringtext5 0927                                  __pstringtext6 0800  
                                __pstringtext7 0858                                  __pstringtext8 087E  
                                __pstringtext9 08DE                                  ___eecpymem@cp 0074  
                                ___eecpymem@to 0075                             EUSART_Write@txData 0070  
               __end_of_PIN_MANAGER_Initialize 0598                                     _STATUSbits 0003  
                                 ___eetoc@addr 0076                                   ___eetoc@data 0077  
